
pony:     file format elf64-x86-64


Disassembly of section .init:

0000000000005000 <_init>:
    5000:	f3 0f 1e fa          	endbr64
    5004:	48 83 ec 08          	sub    $0x8,%rsp
    5008:	48 8b 05 41 0f 02 00 	mov    0x20f41(%rip),%rax        # 25f50 <__gmon_start__@Base>
    500f:	48 85 c0             	test   %rax,%rax
    5012:	74 02                	je     5016 <_init+0x16>
    5014:	ff d0                	call   *%rax
    5016:	48 83 c4 08          	add    $0x8,%rsp
    501a:	c3                   	ret

Disassembly of section .plt:

0000000000005020 <tcsetattr@plt-0x10>:
    5020:	ff 35 ca 0f 02 00    	push   0x20fca(%rip)        # 25ff0 <_GLOBAL_OFFSET_TABLE_+0x8>
    5026:	ff 25 cc 0f 02 00    	jmp    *0x20fcc(%rip)        # 25ff8 <_GLOBAL_OFFSET_TABLE_+0x10>
    502c:	0f 1f 40 00          	nopl   0x0(%rax)

0000000000005030 <tcsetattr@plt>:
    5030:	ff 25 ca 0f 02 00    	jmp    *0x20fca(%rip)        # 26000 <tcsetattr@GLIBC_2.2.5>
    5036:	68 00 00 00 00       	push   $0x0
    503b:	e9 e0 ff ff ff       	jmp    5020 <_init+0x20>

0000000000005040 <pthread_join@plt>:
    5040:	ff 25 c2 0f 02 00    	jmp    *0x20fc2(%rip)        # 26008 <pthread_join@GLIBC_2.34>
    5046:	68 01 00 00 00       	push   $0x1
    504b:	e9 d0 ff ff ff       	jmp    5020 <_init+0x20>

0000000000005050 <printf@plt>:
    5050:	ff 25 ba 0f 02 00    	jmp    *0x20fba(%rip)        # 26010 <printf@GLIBC_2.2.5>
    5056:	68 02 00 00 00       	push   $0x2
    505b:	e9 c0 ff ff ff       	jmp    5020 <_init+0x20>

0000000000005060 <_Unwind_GetRegionStart@plt>:
    5060:	ff 25 b2 0f 02 00    	jmp    *0x20fb2(%rip)        # 26018 <_Unwind_GetRegionStart@GCC_3.0>
    5066:	68 03 00 00 00       	push   $0x3
    506b:	e9 b0 ff ff ff       	jmp    5020 <_init+0x20>

0000000000005070 <memset@plt>:
    5070:	ff 25 aa 0f 02 00    	jmp    *0x20faa(%rip)        # 26020 <memset@GLIBC_2.2.5>
    5076:	68 04 00 00 00       	push   $0x4
    507b:	e9 a0 ff ff ff       	jmp    5020 <_init+0x20>

0000000000005080 <snprintf@plt>:
    5080:	ff 25 a2 0f 02 00    	jmp    *0x20fa2(%rip)        # 26028 <snprintf@GLIBC_2.2.5>
    5086:	68 05 00 00 00       	push   $0x5
    508b:	e9 90 ff ff ff       	jmp    5020 <_init+0x20>

0000000000005090 <_Unwind_SetGR@plt>:
    5090:	ff 25 9a 0f 02 00    	jmp    *0x20f9a(%rip)        # 26030 <_Unwind_SetGR@GCC_3.0>
    5096:	68 06 00 00 00       	push   $0x6
    509b:	e9 80 ff ff ff       	jmp    5020 <_init+0x20>

00000000000050a0 <shutdown@plt>:
    50a0:	ff 25 92 0f 02 00    	jmp    *0x20f92(%rip)        # 26038 <shutdown@GLIBC_2.2.5>
    50a6:	68 07 00 00 00       	push   $0x7
    50ab:	e9 70 ff ff ff       	jmp    5020 <_init+0x20>

00000000000050b0 <backtrace@plt>:
    50b0:	ff 25 8a 0f 02 00    	jmp    *0x20f8a(%rip)        # 26040 <backtrace@GLIBC_2.2.5>
    50b6:	68 08 00 00 00       	push   $0x8
    50bb:	e9 60 ff ff ff       	jmp    5020 <_init+0x20>

00000000000050c0 <mmap64@plt>:
    50c0:	ff 25 82 0f 02 00    	jmp    *0x20f82(%rip)        # 26048 <mmap64@GLIBC_2.2.5>
    50c6:	68 09 00 00 00       	push   $0x9
    50cb:	e9 50 ff ff ff       	jmp    5020 <_init+0x20>

00000000000050d0 <inet_pton@plt>:
    50d0:	ff 25 7a 0f 02 00    	jmp    *0x20f7a(%rip)        # 26050 <inet_pton@GLIBC_2.2.5>
    50d6:	68 0a 00 00 00       	push   $0xa
    50db:	e9 40 ff ff ff       	jmp    5020 <_init+0x20>

00000000000050e0 <pthread_sigmask@plt>:
    50e0:	ff 25 72 0f 02 00    	jmp    *0x20f72(%rip)        # 26058 <pthread_sigmask@GLIBC_2.32>
    50e6:	68 0b 00 00 00       	push   $0xb
    50eb:	e9 30 ff ff ff       	jmp    5020 <_init+0x20>

00000000000050f0 <close@plt>:
    50f0:	ff 25 6a 0f 02 00    	jmp    *0x20f6a(%rip)        # 26060 <close@GLIBC_2.2.5>
    50f6:	68 0c 00 00 00       	push   $0xc
    50fb:	e9 20 ff ff ff       	jmp    5020 <_init+0x20>

0000000000005100 <abort@plt>:
    5100:	ff 25 62 0f 02 00    	jmp    *0x20f62(%rip)        # 26068 <abort@GLIBC_2.2.5>
    5106:	68 0d 00 00 00       	push   $0xd
    510b:	e9 10 ff ff ff       	jmp    5020 <_init+0x20>

0000000000005110 <clock_gettime@plt>:
    5110:	ff 25 5a 0f 02 00    	jmp    *0x20f5a(%rip)        # 26070 <clock_gettime@GLIBC_2.17>
    5116:	68 0e 00 00 00       	push   $0xe
    511b:	e9 00 ff ff ff       	jmp    5020 <_init+0x20>

0000000000005120 <isatty@plt>:
    5120:	ff 25 52 0f 02 00    	jmp    *0x20f52(%rip)        # 26078 <isatty@GLIBC_2.2.5>
    5126:	68 0f 00 00 00       	push   $0xf
    512b:	e9 f0 fe ff ff       	jmp    5020 <_init+0x20>

0000000000005130 <puts@plt>:
    5130:	ff 25 4a 0f 02 00    	jmp    *0x20f4a(%rip)        # 26080 <puts@GLIBC_2.2.5>
    5136:	68 10 00 00 00       	push   $0x10
    513b:	e9 e0 fe ff ff       	jmp    5020 <_init+0x20>

0000000000005140 <getpeername@plt>:
    5140:	ff 25 42 0f 02 00    	jmp    *0x20f42(%rip)        # 26088 <getpeername@GLIBC_2.2.5>
    5146:	68 11 00 00 00       	push   $0x11
    514b:	e9 d0 fe ff ff       	jmp    5020 <_init+0x20>

0000000000005150 <exit@plt>:
    5150:	ff 25 3a 0f 02 00    	jmp    *0x20f3a(%rip)        # 26090 <exit@GLIBC_2.2.5>
    5156:	68 12 00 00 00       	push   $0x12
    515b:	e9 c0 fe ff ff       	jmp    5020 <_init+0x20>

0000000000005160 <getaddrinfo@plt>:
    5160:	ff 25 32 0f 02 00    	jmp    *0x20f32(%rip)        # 26098 <getaddrinfo@GLIBC_2.2.5>
    5166:	68 13 00 00 00       	push   $0x13
    516b:	e9 b0 fe ff ff       	jmp    5020 <_init+0x20>

0000000000005170 <setvbuf@plt>:
    5170:	ff 25 2a 0f 02 00    	jmp    *0x20f2a(%rip)        # 260a0 <setvbuf@GLIBC_2.2.5>
    5176:	68 14 00 00 00       	push   $0x14
    517b:	e9 a0 fe ff ff       	jmp    5020 <_init+0x20>

0000000000005180 <read@plt>:
    5180:	ff 25 22 0f 02 00    	jmp    *0x20f22(%rip)        # 260a8 <read@GLIBC_2.2.5>
    5186:	68 15 00 00 00       	push   $0x15
    518b:	e9 90 fe ff ff       	jmp    5020 <_init+0x20>

0000000000005190 <strncmp@plt>:
    5190:	ff 25 1a 0f 02 00    	jmp    *0x20f1a(%rip)        # 260b0 <strncmp@GLIBC_2.2.5>
    5196:	68 16 00 00 00       	push   $0x16
    519b:	e9 80 fe ff ff       	jmp    5020 <_init+0x20>

00000000000051a0 <recv@plt>:
    51a0:	ff 25 12 0f 02 00    	jmp    *0x20f12(%rip)        # 260b8 <recv@GLIBC_2.2.5>
    51a6:	68 17 00 00 00       	push   $0x17
    51ab:	e9 70 fe ff ff       	jmp    5020 <_init+0x20>

00000000000051b0 <setsockopt@plt>:
    51b0:	ff 25 0a 0f 02 00    	jmp    *0x20f0a(%rip)        # 260c0 <setsockopt@GLIBC_2.2.5>
    51b6:	68 18 00 00 00       	push   $0x18
    51bb:	e9 60 fe ff ff       	jmp    5020 <_init+0x20>

00000000000051c0 <eventfd@plt>:
    51c0:	ff 25 02 0f 02 00    	jmp    *0x20f02(%rip)        # 260c8 <eventfd@GLIBC_2.7>
    51c6:	68 19 00 00 00       	push   $0x19
    51cb:	e9 50 fe ff ff       	jmp    5020 <_init+0x20>

00000000000051d0 <pthread_attr_destroy@plt>:
    51d0:	ff 25 fa 0e 02 00    	jmp    *0x20efa(%rip)        # 260d0 <pthread_attr_destroy@GLIBC_2.2.5>
    51d6:	68 1a 00 00 00       	push   $0x1a
    51db:	e9 40 fe ff ff       	jmp    5020 <_init+0x20>

00000000000051e0 <_Unwind_GetLanguageSpecificData@plt>:
    51e0:	ff 25 f2 0e 02 00    	jmp    *0x20ef2(%rip)        # 260d8 <_Unwind_GetLanguageSpecificData@GCC_3.0>
    51e6:	68 1b 00 00 00       	push   $0x1b
    51eb:	e9 30 fe ff ff       	jmp    5020 <_init+0x20>

00000000000051f0 <pthread_create@plt>:
    51f0:	ff 25 ea 0e 02 00    	jmp    *0x20eea(%rip)        # 260e0 <pthread_create@GLIBC_2.34>
    51f6:	68 1c 00 00 00       	push   $0x1c
    51fb:	e9 20 fe ff ff       	jmp    5020 <_init+0x20>

0000000000005200 <fputc@plt>:
    5200:	ff 25 e2 0e 02 00    	jmp    *0x20ee2(%rip)        # 260e8 <fputc@GLIBC_2.2.5>
    5206:	68 1d 00 00 00       	push   $0x1d
    520b:	e9 10 fe ff ff       	jmp    5020 <_init+0x20>

0000000000005210 <freeaddrinfo@plt>:
    5210:	ff 25 da 0e 02 00    	jmp    *0x20eda(%rip)        # 260f0 <freeaddrinfo@GLIBC_2.2.5>
    5216:	68 1e 00 00 00       	push   $0x1e
    521b:	e9 00 fe ff ff       	jmp    5020 <_init+0x20>

0000000000005220 <backtrace_symbols@plt>:
    5220:	ff 25 d2 0e 02 00    	jmp    *0x20ed2(%rip)        # 260f8 <backtrace_symbols@GLIBC_2.2.5>
    5226:	68 1f 00 00 00       	push   $0x1f
    522b:	e9 f0 fd ff ff       	jmp    5020 <_init+0x20>

0000000000005230 <free@plt>:
    5230:	ff 25 ca 0e 02 00    	jmp    *0x20eca(%rip)        # 26100 <free@GLIBC_2.2.5>
    5236:	68 20 00 00 00       	push   $0x20
    523b:	e9 e0 fd ff ff       	jmp    5020 <_init+0x20>

0000000000005240 <strlen@plt>:
    5240:	ff 25 c2 0e 02 00    	jmp    *0x20ec2(%rip)        # 26108 <strlen@GLIBC_2.2.5>
    5246:	68 21 00 00 00       	push   $0x21
    524b:	e9 d0 fd ff ff       	jmp    5020 <_init+0x20>

0000000000005250 <__atomic_compare_exchange_16@plt>:
    5250:	ff 25 ba 0e 02 00    	jmp    *0x20eba(%rip)        # 26110 <__atomic_compare_exchange_16@LIBATOMIC_1.0>
    5256:	68 22 00 00 00       	push   $0x22
    525b:	e9 c0 fd ff ff       	jmp    5020 <_init+0x20>

0000000000005260 <__sysconf@plt>:
    5260:	ff 25 b2 0e 02 00    	jmp    *0x20eb2(%rip)        # 26118 <__sysconf@GLIBC_2.2.5>
    5266:	68 23 00 00 00       	push   $0x23
    526b:	e9 b0 fd ff ff       	jmp    5020 <_init+0x20>

0000000000005270 <_Unwind_RaiseException@plt>:
    5270:	ff 25 aa 0e 02 00    	jmp    *0x20eaa(%rip)        # 26120 <_Unwind_RaiseException@GCC_3.0>
    5276:	68 24 00 00 00       	push   $0x24
    527b:	e9 a0 fd ff ff       	jmp    5020 <_init+0x20>

0000000000005280 <listen@plt>:
    5280:	ff 25 a2 0e 02 00    	jmp    *0x20ea2(%rip)        # 26128 <listen@GLIBC_2.2.5>
    5286:	68 25 00 00 00       	push   $0x25
    528b:	e9 90 fd ff ff       	jmp    5020 <_init+0x20>

0000000000005290 <pthread_kill@plt>:
    5290:	ff 25 9a 0e 02 00    	jmp    *0x20e9a(%rip)        # 26130 <pthread_kill@GLIBC_2.34>
    5296:	68 26 00 00 00       	push   $0x26
    529b:	e9 80 fd ff ff       	jmp    5020 <_init+0x20>

00000000000052a0 <__tls_get_addr@plt>:
    52a0:	ff 25 92 0e 02 00    	jmp    *0x20e92(%rip)        # 26138 <__tls_get_addr@GLIBC_2.3>
    52a6:	68 27 00 00 00       	push   $0x27
    52ab:	e9 70 fd ff ff       	jmp    5020 <_init+0x20>

00000000000052b0 <_Unwind_GetIP@plt>:
    52b0:	ff 25 8a 0e 02 00    	jmp    *0x20e8a(%rip)        # 26140 <_Unwind_GetIP@GCC_3.0>
    52b6:	68 28 00 00 00       	push   $0x28
    52bb:	e9 60 fd ff ff       	jmp    5020 <_init+0x20>

00000000000052c0 <epoll_create1@plt>:
    52c0:	ff 25 82 0e 02 00    	jmp    *0x20e82(%rip)        # 26148 <epoll_create1@GLIBC_2.9>
    52c6:	68 29 00 00 00       	push   $0x29
    52cb:	e9 50 fd ff ff       	jmp    5020 <_init+0x20>

00000000000052d0 <pthread_self@plt>:
    52d0:	ff 25 7a 0e 02 00    	jmp    *0x20e7a(%rip)        # 26150 <pthread_self@GLIBC_2.2.5>
    52d6:	68 2a 00 00 00       	push   $0x2a
    52db:	e9 40 fd ff ff       	jmp    5020 <_init+0x20>

00000000000052e0 <poll@plt>:
    52e0:	ff 25 72 0e 02 00    	jmp    *0x20e72(%rip)        # 26158 <poll@GLIBC_2.2.5>
    52e6:	68 2b 00 00 00       	push   $0x2b
    52eb:	e9 30 fd ff ff       	jmp    5020 <_init+0x20>

00000000000052f0 <fwrite_unlocked@plt>:
    52f0:	ff 25 6a 0e 02 00    	jmp    *0x20e6a(%rip)        # 26160 <fwrite_unlocked@GLIBC_2.2.5>
    52f6:	68 2c 00 00 00       	push   $0x2c
    52fb:	e9 20 fd ff ff       	jmp    5020 <_init+0x20>

0000000000005300 <epoll_ctl@plt>:
    5300:	ff 25 62 0e 02 00    	jmp    *0x20e62(%rip)        # 26168 <epoll_ctl@GLIBC_2.3.2>
    5306:	68 2d 00 00 00       	push   $0x2d
    530b:	e9 10 fd ff ff       	jmp    5020 <_init+0x20>

0000000000005310 <sigaction@plt>:
    5310:	ff 25 5a 0e 02 00    	jmp    *0x20e5a(%rip)        # 26170 <sigaction@GLIBC_2.2.5>
    5316:	68 2e 00 00 00       	push   $0x2e
    531b:	e9 00 fd ff ff       	jmp    5020 <_init+0x20>

0000000000005320 <fstat64@plt>:
    5320:	ff 25 52 0e 02 00    	jmp    *0x20e52(%rip)        # 26178 <fstat64@GLIBC_2.33>
    5326:	68 2f 00 00 00       	push   $0x2f
    532b:	e9 f0 fc ff ff       	jmp    5020 <_init+0x20>

0000000000005330 <getsockopt@plt>:
    5330:	ff 25 4a 0e 02 00    	jmp    *0x20e4a(%rip)        # 26180 <getsockopt@GLIBC_2.2.5>
    5336:	68 30 00 00 00       	push   $0x30
    533b:	e9 e0 fc ff ff       	jmp    5020 <_init+0x20>

0000000000005340 <dlopen@plt>:
    5340:	ff 25 42 0e 02 00    	jmp    *0x20e42(%rip)        # 26188 <dlopen@GLIBC_2.34>
    5346:	68 31 00 00 00       	push   $0x31
    534b:	e9 d0 fc ff ff       	jmp    5020 <_init+0x20>

0000000000005350 <strtol@plt>:
    5350:	ff 25 3a 0e 02 00    	jmp    *0x20e3a(%rip)        # 26190 <strtol@GLIBC_2.2.5>
    5356:	68 32 00 00 00       	push   $0x32
    535b:	e9 c0 fc ff ff       	jmp    5020 <_init+0x20>

0000000000005360 <getsockname@plt>:
    5360:	ff 25 32 0e 02 00    	jmp    *0x20e32(%rip)        # 26198 <getsockname@GLIBC_2.2.5>
    5366:	68 33 00 00 00       	push   $0x33
    536b:	e9 b0 fc ff ff       	jmp    5020 <_init+0x20>

0000000000005370 <connect@plt>:
    5370:	ff 25 2a 0e 02 00    	jmp    *0x20e2a(%rip)        # 261a0 <connect@GLIBC_2.2.5>
    5376:	68 34 00 00 00       	push   $0x34
    537b:	e9 a0 fc ff ff       	jmp    5020 <_init+0x20>

0000000000005380 <sched_getaffinity@plt>:
    5380:	ff 25 22 0e 02 00    	jmp    *0x20e22(%rip)        # 261a8 <sched_getaffinity@GLIBC_2.3.4>
    5386:	68 35 00 00 00       	push   $0x35
    538b:	e9 90 fc ff ff       	jmp    5020 <_init+0x20>

0000000000005390 <pthread_detach@plt>:
    5390:	ff 25 1a 0e 02 00    	jmp    *0x20e1a(%rip)        # 261b0 <pthread_detach@GLIBC_2.34>
    5396:	68 36 00 00 00       	push   $0x36
    539b:	e9 80 fc ff ff       	jmp    5020 <_init+0x20>

00000000000053a0 <tcgetattr@plt>:
    53a0:	ff 25 12 0e 02 00    	jmp    *0x20e12(%rip)        # 261b8 <tcgetattr@GLIBC_2.2.5>
    53a6:	68 37 00 00 00       	push   $0x37
    53ab:	e9 70 fc ff ff       	jmp    5020 <_init+0x20>

00000000000053b0 <pthread_attr_setstacksize@plt>:
    53b0:	ff 25 0a 0e 02 00    	jmp    *0x20e0a(%rip)        # 261c0 <pthread_attr_setstacksize@GLIBC_2.34>
    53b6:	68 38 00 00 00       	push   $0x38
    53bb:	e9 60 fc ff ff       	jmp    5020 <_init+0x20>

00000000000053c0 <memmove@plt>:
    53c0:	ff 25 02 0e 02 00    	jmp    *0x20e02(%rip)        # 261c8 <memmove@GLIBC_2.2.5>
    53c6:	68 39 00 00 00       	push   $0x39
    53cb:	e9 50 fc ff ff       	jmp    5020 <_init+0x20>

00000000000053d0 <socket@plt>:
    53d0:	ff 25 fa 0d 02 00    	jmp    *0x20dfa(%rip)        # 261d0 <socket@GLIBC_2.2.5>
    53d6:	68 3a 00 00 00       	push   $0x3a
    53db:	e9 40 fc ff ff       	jmp    5020 <_init+0x20>

00000000000053e0 <fread@plt>:
    53e0:	ff 25 f2 0d 02 00    	jmp    *0x20df2(%rip)        # 261d8 <fread@GLIBC_2.2.5>
    53e6:	68 3b 00 00 00       	push   $0x3b
    53eb:	e9 30 fc ff ff       	jmp    5020 <_init+0x20>

00000000000053f0 <getrlimit64@plt>:
    53f0:	ff 25 ea 0d 02 00    	jmp    *0x20dea(%rip)        # 261e0 <getrlimit64@GLIBC_2.2.5>
    53f6:	68 3c 00 00 00       	push   $0x3c
    53fb:	e9 20 fc ff ff       	jmp    5020 <_init+0x20>

0000000000005400 <__errno_location@plt>:
    5400:	ff 25 e2 0d 02 00    	jmp    *0x20de2(%rip)        # 261e8 <__errno_location@GLIBC_2.2.5>
    5406:	68 3d 00 00 00       	push   $0x3d
    540b:	e9 10 fc ff ff       	jmp    5020 <_init+0x20>

0000000000005410 <accept4@plt>:
    5410:	ff 25 da 0d 02 00    	jmp    *0x20dda(%rip)        # 261f0 <accept4@GLIBC_2.10>
    5416:	68 3e 00 00 00       	push   $0x3e
    541b:	e9 00 fc ff ff       	jmp    5020 <_init+0x20>

0000000000005420 <sigaddset@plt>:
    5420:	ff 25 d2 0d 02 00    	jmp    *0x20dd2(%rip)        # 261f8 <sigaddset@GLIBC_2.2.5>
    5426:	68 3f 00 00 00       	push   $0x3f
    542b:	e9 f0 fb ff ff       	jmp    5020 <_init+0x20>

0000000000005430 <__stack_chk_fail@plt>:
    5430:	ff 25 ca 0d 02 00    	jmp    *0x20dca(%rip)        # 26200 <__stack_chk_fail@GLIBC_2.4>
    5436:	68 40 00 00 00       	push   $0x40
    543b:	e9 e0 fb ff ff       	jmp    5020 <_init+0x20>

0000000000005440 <getnameinfo@plt>:
    5440:	ff 25 c2 0d 02 00    	jmp    *0x20dc2(%rip)        # 26208 <getnameinfo@GLIBC_2.2.5>
    5446:	68 41 00 00 00       	push   $0x41
    544b:	e9 d0 fb ff ff       	jmp    5020 <_init+0x20>

0000000000005450 <send@plt>:
    5450:	ff 25 ba 0d 02 00    	jmp    *0x20dba(%rip)        # 26210 <send@GLIBC_2.2.5>
    5456:	68 42 00 00 00       	push   $0x42
    545b:	e9 c0 fb ff ff       	jmp    5020 <_init+0x20>

0000000000005460 <__isoc23_strtol@plt>:
    5460:	ff 25 b2 0d 02 00    	jmp    *0x20db2(%rip)        # 26218 <__isoc23_strtol@GLIBC_2.38>
    5466:	68 43 00 00 00       	push   $0x43
    546b:	e9 b0 fb ff ff       	jmp    5020 <_init+0x20>

0000000000005470 <epoll_wait@plt>:
    5470:	ff 25 aa 0d 02 00    	jmp    *0x20daa(%rip)        # 26220 <epoll_wait@GLIBC_2.3.2>
    5476:	68 44 00 00 00       	push   $0x44
    547b:	e9 a0 fb ff ff       	jmp    5020 <_init+0x20>

0000000000005480 <nanosleep@plt>:
    5480:	ff 25 a2 0d 02 00    	jmp    *0x20da2(%rip)        # 26228 <nanosleep@GLIBC_2.2.5>
    5486:	68 45 00 00 00       	push   $0x45
    548b:	e9 90 fb ff ff       	jmp    5020 <_init+0x20>

0000000000005490 <eventfd_write@plt>:
    5490:	ff 25 9a 0d 02 00    	jmp    *0x20d9a(%rip)        # 26230 <eventfd_write@GLIBC_2.7>
    5496:	68 46 00 00 00       	push   $0x46
    549b:	e9 80 fb ff ff       	jmp    5020 <_init+0x20>

00000000000054a0 <munmap@plt>:
    54a0:	ff 25 92 0d 02 00    	jmp    *0x20d92(%rip)        # 26238 <munmap@GLIBC_2.2.5>
    54a6:	68 47 00 00 00       	push   $0x47
    54ab:	e9 70 fb ff ff       	jmp    5020 <_init+0x20>

00000000000054b0 <writev@plt>:
    54b0:	ff 25 8a 0d 02 00    	jmp    *0x20d8a(%rip)        # 26240 <writev@GLIBC_2.2.5>
    54b6:	68 48 00 00 00       	push   $0x48
    54bb:	e9 60 fb ff ff       	jmp    5020 <_init+0x20>

00000000000054c0 <fclose@plt>:
    54c0:	ff 25 82 0d 02 00    	jmp    *0x20d82(%rip)        # 26248 <fclose@GLIBC_2.2.5>
    54c6:	68 49 00 00 00       	push   $0x49
    54cb:	e9 50 fb ff ff       	jmp    5020 <_init+0x20>

00000000000054d0 <recvfrom@plt>:
    54d0:	ff 25 7a 0d 02 00    	jmp    *0x20d7a(%rip)        # 26250 <recvfrom@GLIBC_2.2.5>
    54d6:	68 4a 00 00 00       	push   $0x4a
    54db:	e9 40 fb ff ff       	jmp    5020 <_init+0x20>

00000000000054e0 <pthread_attr_init@plt>:
    54e0:	ff 25 72 0d 02 00    	jmp    *0x20d72(%rip)        # 26258 <pthread_attr_init@GLIBC_2.2.5>
    54e6:	68 4b 00 00 00       	push   $0x4b
    54eb:	e9 30 fb ff ff       	jmp    5020 <_init+0x20>

00000000000054f0 <__sched_cpucount@plt>:
    54f0:	ff 25 6a 0d 02 00    	jmp    *0x20d6a(%rip)        # 26260 <__sched_cpucount@GLIBC_2.6>
    54f6:	68 4c 00 00 00       	push   $0x4c
    54fb:	e9 20 fb ff ff       	jmp    5020 <_init+0x20>

0000000000005500 <pthread_attr_setstack@plt>:
    5500:	ff 25 62 0d 02 00    	jmp    *0x20d62(%rip)        # 26268 <pthread_attr_setstack@GLIBC_2.34>
    5506:	68 4d 00 00 00       	push   $0x4d
    550b:	e9 10 fb ff ff       	jmp    5020 <_init+0x20>

0000000000005510 <sigemptyset@plt>:
    5510:	ff 25 5a 0d 02 00    	jmp    *0x20d5a(%rip)        # 26270 <sigemptyset@GLIBC_2.2.5>
    5516:	68 4e 00 00 00       	push   $0x4e
    551b:	e9 00 fb ff ff       	jmp    5020 <_init+0x20>

0000000000005520 <fopen64@plt>:
    5520:	ff 25 52 0d 02 00    	jmp    *0x20d52(%rip)        # 26278 <fopen64@GLIBC_2.2.5>
    5526:	68 4f 00 00 00       	push   $0x4f
    552b:	e9 f0 fa ff ff       	jmp    5020 <_init+0x20>

0000000000005530 <dlsym@plt>:
    5530:	ff 25 4a 0d 02 00    	jmp    *0x20d4a(%rip)        # 26280 <dlsym@GLIBC_2.34>
    5536:	68 50 00 00 00       	push   $0x50
    553b:	e9 e0 fa ff ff       	jmp    5020 <_init+0x20>

0000000000005540 <sendto@plt>:
    5540:	ff 25 42 0d 02 00    	jmp    *0x20d42(%rip)        # 26288 <sendto@GLIBC_2.2.5>
    5546:	68 51 00 00 00       	push   $0x51
    554b:	e9 d0 fa ff ff       	jmp    5020 <_init+0x20>

0000000000005550 <bind@plt>:
    5550:	ff 25 3a 0d 02 00    	jmp    *0x20d3a(%rip)        # 26290 <bind@GLIBC_2.2.5>
    5556:	68 52 00 00 00       	push   $0x52
    555b:	e9 c0 fa ff ff       	jmp    5020 <_init+0x20>

0000000000005560 <fwrite@plt>:
    5560:	ff 25 32 0d 02 00    	jmp    *0x20d32(%rip)        # 26298 <fwrite@GLIBC_2.2.5>
    5566:	68 53 00 00 00       	push   $0x53
    556b:	e9 b0 fa ff ff       	jmp    5020 <_init+0x20>

0000000000005570 <timerfd_create@plt>:
    5570:	ff 25 2a 0d 02 00    	jmp    *0x20d2a(%rip)        # 262a0 <timerfd_create@GLIBC_2.8>
    5576:	68 54 00 00 00       	push   $0x54
    557b:	e9 a0 fa ff ff       	jmp    5020 <_init+0x20>

0000000000005580 <perror@plt>:
    5580:	ff 25 22 0d 02 00    	jmp    *0x20d22(%rip)        # 262a8 <perror@GLIBC_2.2.5>
    5586:	68 55 00 00 00       	push   $0x55
    558b:	e9 90 fa ff ff       	jmp    5020 <_init+0x20>

0000000000005590 <fprintf@plt>:
    5590:	ff 25 1a 0d 02 00    	jmp    *0x20d1a(%rip)        # 262b0 <fprintf@GLIBC_2.2.5>
    5596:	68 56 00 00 00       	push   $0x56
    559b:	e9 80 fa ff ff       	jmp    5020 <_init+0x20>

00000000000055a0 <timerfd_settime@plt>:
    55a0:	ff 25 12 0d 02 00    	jmp    *0x20d12(%rip)        # 262b8 <timerfd_settime@GLIBC_2.8>
    55a6:	68 57 00 00 00       	push   $0x57
    55ab:	e9 70 fa ff ff       	jmp    5020 <_init+0x20>

00000000000055b0 <inet_ntop@plt>:
    55b0:	ff 25 0a 0d 02 00    	jmp    *0x20d0a(%rip)        # 262c0 <inet_ntop@GLIBC_2.2.5>
    55b6:	68 58 00 00 00       	push   $0x58
    55bb:	e9 60 fa ff ff       	jmp    5020 <_init+0x20>

00000000000055c0 <sigwait@plt>:
    55c0:	ff 25 02 0d 02 00    	jmp    *0x20d02(%rip)        # 262c8 <sigwait@GLIBC_2.2.5>
    55c6:	68 59 00 00 00       	push   $0x59
    55cb:	e9 50 fa ff ff       	jmp    5020 <_init+0x20>

00000000000055d0 <memcpy@plt>:
    55d0:	ff 25 fa 0c 02 00    	jmp    *0x20cfa(%rip)        # 262d0 <memcpy@GLIBC_2.14>
    55d6:	68 5a 00 00 00       	push   $0x5a
    55db:	e9 40 fa ff ff       	jmp    5020 <_init+0x20>

00000000000055e0 <fflush_unlocked@plt>:
    55e0:	ff 25 f2 0c 02 00    	jmp    *0x20cf2(%rip)        # 262d8 <fflush_unlocked@GLIBC_2.2.5>
    55e6:	68 5b 00 00 00       	push   $0x5b
    55eb:	e9 30 fa ff ff       	jmp    5020 <_init+0x20>

00000000000055f0 <_Unwind_SetIP@plt>:
    55f0:	ff 25 ea 0c 02 00    	jmp    *0x20cea(%rip)        # 262e0 <_Unwind_SetIP@GCC_3.0>
    55f6:	68 5c 00 00 00       	push   $0x5c
    55fb:	e9 20 fa ff ff       	jmp    5020 <_init+0x20>

0000000000005600 <sched_setaffinity@plt>:
    5600:	ff 25 e2 0c 02 00    	jmp    *0x20ce2(%rip)        # 262e8 <sched_setaffinity@GLIBC_2.3.4>
    5606:	68 5d 00 00 00       	push   $0x5d
    560b:	e9 10 fa ff ff       	jmp    5020 <_init+0x20>

0000000000005610 <strtod@plt>:
    5610:	ff 25 da 0c 02 00    	jmp    *0x20cda(%rip)        # 262f0 <strtod@GLIBC_2.2.5>
    5616:	68 5e 00 00 00       	push   $0x5e
    561b:	e9 00 fa ff ff       	jmp    5020 <_init+0x20>

0000000000005620 <fflush@plt>:
    5620:	ff 25 d2 0c 02 00    	jmp    *0x20cd2(%rip)        # 262f8 <fflush@GLIBC_2.2.5>
    5626:	68 5f 00 00 00       	push   $0x5f
    562b:	e9 f0 f9 ff ff       	jmp    5020 <_init+0x20>

Disassembly of section .text:

0000000000005640 <read_encoded_ptr.cold>:
    5640:	50                   	push   %rax
    5641:	e8 ba fa ff ff       	call   5100 <abort@plt>

0000000000005646 <ponyint_lsda_scan.cold>:
    5646:	e8 b5 fa ff ff       	call   5100 <abort@plt>

000000000000564b <ponyint_virt_alloc.cold>:
    564b:	48 8d 3d 96 4b 01 00 	lea    0x14b96(%rip),%rdi        # 1a1e8 <_IO_stdin_used+0x1e8>
    5652:	e8 29 ff ff ff       	call   5580 <perror@plt>
    5657:	48 8b 05 5a 09 02 00 	mov    0x2095a(%rip),%rax        # 25fb8 <stderr@GLIBC_2.2.5>
    565e:	48 89 da             	mov    %rbx,%rdx
    5661:	48 8d 35 88 5a 01 00 	lea    0x15a88(%rip),%rsi        # 1b0f0 <_IO_stdin_used+0x10f0>
    5668:	48 8b 38             	mov    (%rax),%rdi
    566b:	31 c0                	xor    %eax,%eax
    566d:	e8 1e ff ff ff       	call   5590 <fprintf@plt>
    5672:	e8 89 fa ff ff       	call   5100 <abort@plt>
    5677:	66 0f 1f 84 00 00 00 	nopw   0x0(%rax,%rax,1)
    567e:	00 00 

0000000000005680 <_start>:
    5680:	f3 0f 1e fa          	endbr64
    5684:	31 ed                	xor    %ebp,%ebp
    5686:	49 89 d1             	mov    %rdx,%r9
    5689:	5e                   	pop    %rsi
    568a:	48 89 e2             	mov    %rsp,%rdx
    568d:	48 83 e4 f0          	and    $0xfffffffffffffff0,%rsp
    5691:	50                   	push   %rax
    5692:	54                   	push   %rsp
    5693:	45 31 c0             	xor    %r8d,%r8d
    5696:	31 c9                	xor    %ecx,%ecx
    5698:	48 8d 3d e1 3e 00 00 	lea    0x3ee1(%rip),%rdi        # 9580 <main>
    569f:	ff 15 23 09 02 00    	call   *0x20923(%rip)        # 25fc8 <__libc_start_main@GLIBC_2.34>
    56a5:	f4                   	hlt
    56a6:	66 2e 0f 1f 84 00 00 	cs nopw 0x0(%rax,%rax,1)
    56ad:	00 00 00 

00000000000056b0 <deregister_tm_clones>:
    56b0:	48 8d 3d 09 10 02 00 	lea    0x21009(%rip),%rdi        # 266c0 <__TMC_END__>
    56b7:	48 8d 05 02 10 02 00 	lea    0x21002(%rip),%rax        # 266c0 <__TMC_END__>
    56be:	48 39 f8             	cmp    %rdi,%rax
    56c1:	74 15                	je     56d8 <deregister_tm_clones+0x28>
    56c3:	48 8b 05 9e 08 02 00 	mov    0x2089e(%rip),%rax        # 25f68 <_ITM_deregisterTMCloneTable@Base>
    56ca:	48 85 c0             	test   %rax,%rax
    56cd:	74 09                	je     56d8 <deregister_tm_clones+0x28>
    56cf:	ff e0                	jmp    *%rax
    56d1:	0f 1f 80 00 00 00 00 	nopl   0x0(%rax)
    56d8:	c3                   	ret
    56d9:	0f 1f 80 00 00 00 00 	nopl   0x0(%rax)

00000000000056e0 <register_tm_clones>:
    56e0:	48 8d 3d d9 0f 02 00 	lea    0x20fd9(%rip),%rdi        # 266c0 <__TMC_END__>
    56e7:	48 8d 35 d2 0f 02 00 	lea    0x20fd2(%rip),%rsi        # 266c0 <__TMC_END__>
    56ee:	48 29 fe             	sub    %rdi,%rsi
    56f1:	48 89 f0             	mov    %rsi,%rax
    56f4:	48 c1 ee 3f          	shr    $0x3f,%rsi
    56f8:	48 c1 f8 03          	sar    $0x3,%rax
    56fc:	48 01 c6             	add    %rax,%rsi
    56ff:	48 d1 fe             	sar    $1,%rsi
    5702:	74 14                	je     5718 <register_tm_clones+0x38>
    5704:	48 8b 05 6d 08 02 00 	mov    0x2086d(%rip),%rax        # 25f78 <_ITM_registerTMCloneTable@Base>
    570b:	48 85 c0             	test   %rax,%rax
    570e:	74 08                	je     5718 <register_tm_clones+0x38>
    5710:	ff e0                	jmp    *%rax
    5712:	66 0f 1f 44 00 00    	nopw   0x0(%rax,%rax,1)
    5718:	c3                   	ret
    5719:	0f 1f 80 00 00 00 00 	nopl   0x0(%rax)

0000000000005720 <__do_global_dtors_aux>:
    5720:	f3 0f 1e fa          	endbr64
    5724:	80 3d 95 0f 02 00 00 	cmpb   $0x0,0x20f95(%rip)        # 266c0 <__TMC_END__>
    572b:	75 33                	jne    5760 <__do_global_dtors_aux+0x40>
    572d:	55                   	push   %rbp
    572e:	48 83 3d 52 08 02 00 	cmpq   $0x0,0x20852(%rip)        # 25f88 <__cxa_finalize@GLIBC_2.2.5>
    5735:	00 
    5736:	48 89 e5             	mov    %rsp,%rbp
    5739:	74 0d                	je     5748 <__do_global_dtors_aux+0x28>
    573b:	48 8b 3d c6 0b 02 00 	mov    0x20bc6(%rip),%rdi        # 26308 <__dso_handle>
    5742:	ff 15 40 08 02 00    	call   *0x20840(%rip)        # 25f88 <__cxa_finalize@GLIBC_2.2.5>
    5748:	e8 63 ff ff ff       	call   56b0 <deregister_tm_clones>
    574d:	c6 05 6c 0f 02 00 01 	movb   $0x1,0x20f6c(%rip)        # 266c0 <__TMC_END__>
    5754:	5d                   	pop    %rbp
    5755:	c3                   	ret
    5756:	66 2e 0f 1f 84 00 00 	cs nopw 0x0(%rax,%rax,1)
    575d:	00 00 00 
    5760:	c3                   	ret
    5761:	0f 1f 40 00          	nopl   0x0(%rax)
    5765:	66 66 2e 0f 1f 84 00 	data16 cs nopw 0x0(%rax,%rax,1)
    576c:	00 00 00 00 

0000000000005770 <frame_dummy>:
    5770:	f3 0f 1e fa          	endbr64
    5774:	e9 67 ff ff ff       	jmp    56e0 <register_tm_clones>
    5779:	0f 1f 80 00 00 00 00 	nopl   0x0(%rax)

0000000000005780 <StdStream_Dispatch>:
    5780:	41 57                	push   %r15
    5782:	41 56                	push   %r14
    5784:	53                   	push   %rbx
    5785:	8b 42 04             	mov    0x4(%rdx),%eax
    5788:	48 89 f3             	mov    %rsi,%rbx
    578b:	85 c0                	test   %eax,%eax
    578d:	74 60                	je     57ef <StdStream_Dispatch+0x6f>
    578f:	83 f8 01             	cmp    $0x1,%eax
    5792:	75 62                	jne    57f6 <StdStream_Dispatch+0x76>
    5794:	4c 8b 72 10          	mov    0x10(%rdx),%r14
    5798:	49 89 ff             	mov    %rdi,%r15
    579b:	e8 20 9b 00 00       	call   f2c0 <pony_gc_recv>
    57a0:	ba 01 00 00 00       	mov    $0x1,%edx
    57a5:	4c 89 ff             	mov    %r15,%rdi
    57a8:	4c 89 f6             	mov    %r14,%rsi
    57ab:	e8 e0 9c 00 00       	call   f490 <pony_traceunknown>
    57b0:	4c 89 ff             	mov    %r15,%rdi
    57b3:	e8 b8 9b 00 00       	call   f370 <pony_recv_done>
    57b8:	49 8b 06             	mov    (%r14),%rax
    57bb:	48 8b 9b 30 01 00 00 	mov    0x130(%rbx),%rbx
    57c2:	4c 89 f7             	mov    %r14,%rdi
    57c5:	31 f6                	xor    %esi,%esi
    57c7:	ff 90 90 00 00 00    	call   *0x90(%rax)
    57cd:	49 89 c7             	mov    %rax,%r15
    57d0:	49 8b 06             	mov    (%r14),%rax
    57d3:	4c 89 f7             	mov    %r14,%rdi
    57d6:	ff 90 f0 00 00 00    	call   *0xf0(%rax)
    57dc:	48 89 df             	mov    %rbx,%rdi
    57df:	4c 89 fe             	mov    %r15,%rsi
    57e2:	48 89 c2             	mov    %rax,%rdx
    57e5:	5b                   	pop    %rbx
    57e6:	41 5e                	pop    %r14
    57e8:	41 5f                	pop    %r15
    57ea:	e9 c1 a1 00 00       	jmp    f9b0 <pony_os_std_print>
    57ef:	e8 ec 9e 00 00       	call   f6e0 <pony_os_stderr>
    57f4:	eb 05                	jmp    57fb <StdStream_Dispatch+0x7b>
    57f6:	e8 d5 9e 00 00       	call   f6d0 <pony_os_stdout>
    57fb:	48 89 83 30 01 00 00 	mov    %rax,0x130(%rbx)
    5802:	5b                   	pop    %rbx
    5803:	41 5e                	pop    %r14
    5805:	41 5f                	pop    %r15
    5807:	c3                   	ret
    5808:	0f 1f 84 00 00 00 00 	nopl   0x0(%rax,%rax,1)
    580f:	00 

0000000000005810 <StdStream_Trace>:
    5810:	48 8b b6 30 01 00 00 	mov    0x130(%rsi),%rsi
    5817:	48 8d 15 42 01 02 00 	lea    0x20142(%rip),%rdx        # 25960 <cycle_type+0x1c00>
    581e:	31 c9                	xor    %ecx,%ecx
    5820:	e9 4b 9c 00 00       	jmp    f470 <pony_traceknown>
    5825:	66 66 2e 0f 1f 84 00 	data16 cs nopw 0x0(%rax,%rax,1)
    582c:	00 00 00 00 

0000000000005830 <Main_Dispatch>:
    5830:	55                   	push   %rbp
    5831:	41 57                	push   %r15
    5833:	41 56                	push   %r14
    5835:	41 55                	push   %r13
    5837:	41 54                	push   %r12
    5839:	53                   	push   %rbx
    583a:	48 83 ec 28          	sub    $0x28,%rsp
    583e:	4c 8b 72 10          	mov    0x10(%rdx),%r14
    5842:	48 89 fb             	mov    %rdi,%rbx
    5845:	e8 76 9a 00 00       	call   f2c0 <pony_gc_recv>
    584a:	48 8d 15 af fa 01 00 	lea    0x1faaf(%rip),%rdx        # 25300 <cycle_type+0x15a0>
    5851:	b9 01 00 00 00       	mov    $0x1,%ecx
    5856:	48 89 df             	mov    %rbx,%rdi
    5859:	4c 89 f6             	mov    %r14,%rsi
    585c:	e8 0f 9c 00 00       	call   f470 <pony_traceknown>
    5861:	48 89 df             	mov    %rbx,%rdi
    5864:	e8 07 9b 00 00       	call   f370 <pony_recv_done>
    5869:	e8 22 d8 00 00       	call   13090 <pony_ctx>
    586e:	4d 8b 66 18          	mov    0x18(%r14),%r12
    5872:	be 01 00 00 00       	mov    $0x1,%esi
    5877:	31 ff                	xor    %edi,%edi
    5879:	e8 32 40 00 00       	call   98b0 <pony_alloc_msg>
    587e:	48 8d 2d 5b 03 02 00 	lea    0x2035b(%rip),%rbp        # 25be0 <cycle_type+0x1e80>
    5885:	48 89 df             	mov    %rbx,%rdi
    5888:	49 89 c5             	mov    %rax,%r13
    588b:	48 89 68 10          	mov    %rbp,0x10(%rax)
    588f:	e8 0c 9a 00 00       	call   f2a0 <pony_gc_send>
    5894:	4c 8d 3d 55 ec 01 00 	lea    0x1ec55(%rip),%r15        # 244f0 <cycle_type+0x790>
    589b:	b9 01 00 00 00       	mov    $0x1,%ecx
    58a0:	48 89 df             	mov    %rbx,%rdi
    58a3:	48 89 ee             	mov    %rbp,%rsi
    58a6:	4c 89 fa             	mov    %r15,%rdx
    58a9:	e8 c2 9b 00 00       	call   f470 <pony_traceknown>
    58ae:	48 89 df             	mov    %rbx,%rdi
    58b1:	e8 8a 9a 00 00       	call   f340 <pony_send_done>
    58b6:	41 b8 01 00 00 00    	mov    $0x1,%r8d
    58bc:	48 89 df             	mov    %rbx,%rdi
    58bf:	4c 89 e6             	mov    %r12,%rsi
    58c2:	4c 89 ea             	mov    %r13,%rdx
    58c5:	4c 89 e9             	mov    %r13,%rcx
    58c8:	e8 23 40 00 00       	call   98f0 <pony_sendv>
    58cd:	4d 8b 6e 18          	mov    0x18(%r14),%r13
    58d1:	be 01 00 00 00       	mov    $0x1,%esi
    58d6:	31 ff                	xor    %edi,%edi
    58d8:	e8 d3 3f 00 00       	call   98b0 <pony_alloc_msg>
    58dd:	4c 8d 25 1c 03 02 00 	lea    0x2031c(%rip),%r12        # 25c00 <cycle_type+0x1ea0>
    58e4:	48 89 df             	mov    %rbx,%rdi
    58e7:	48 89 c5             	mov    %rax,%rbp
    58ea:	4c 89 60 10          	mov    %r12,0x10(%rax)
    58ee:	e8 ad 99 00 00       	call   f2a0 <pony_gc_send>
    58f3:	b9 01 00 00 00       	mov    $0x1,%ecx
    58f8:	4c 89 e6             	mov    %r12,%rsi
    58fb:	48 89 df             	mov    %rbx,%rdi
    58fe:	4c 89 fa             	mov    %r15,%rdx
    5901:	4d 89 fc             	mov    %r15,%r12
    5904:	e8 67 9b 00 00       	call   f470 <pony_traceknown>
    5909:	48 89 df             	mov    %rbx,%rdi
    590c:	e8 2f 9a 00 00       	call   f340 <pony_send_done>
    5911:	41 b8 01 00 00 00    	mov    $0x1,%r8d
    5917:	48 89 df             	mov    %rbx,%rdi
    591a:	4c 89 ee             	mov    %r13,%rsi
    591d:	48 89 ea             	mov    %rbp,%rdx
    5920:	48 89 e9             	mov    %rbp,%rcx
    5923:	e8 c8 3f 00 00       	call   98f0 <pony_sendv>
    5928:	4d 8b 6e 18          	mov    0x18(%r14),%r13
    592c:	be 01 00 00 00       	mov    $0x1,%esi
    5931:	31 ff                	xor    %edi,%edi
    5933:	e8 78 3f 00 00       	call   98b0 <pony_alloc_msg>
    5938:	4c 8d 3d e1 02 02 00 	lea    0x202e1(%rip),%r15        # 25c20 <cycle_type+0x1ec0>
    593f:	48 89 df             	mov    %rbx,%rdi
    5942:	48 89 c5             	mov    %rax,%rbp
    5945:	4c 89 78 10          	mov    %r15,0x10(%rax)
    5949:	e8 52 99 00 00       	call   f2a0 <pony_gc_send>
    594e:	b9 01 00 00 00       	mov    $0x1,%ecx
    5953:	48 89 df             	mov    %rbx,%rdi
    5956:	4c 89 fe             	mov    %r15,%rsi
    5959:	4c 89 e2             	mov    %r12,%rdx
    595c:	e8 0f 9b 00 00       	call   f470 <pony_traceknown>
    5961:	48 89 df             	mov    %rbx,%rdi
    5964:	e8 d7 99 00 00       	call   f340 <pony_send_done>
    5969:	41 b8 01 00 00 00    	mov    $0x1,%r8d
    596f:	48 89 df             	mov    %rbx,%rdi
    5972:	4c 89 ee             	mov    %r13,%rsi
    5975:	48 89 ea             	mov    %rbp,%rdx
    5978:	48 89 e9             	mov    %rbp,%rcx
    597b:	e8 70 3f 00 00       	call   98f0 <pony_sendv>
    5980:	4d 8b 7e 18          	mov    0x18(%r14),%r15
    5984:	be 01 00 00 00       	mov    $0x1,%esi
    5989:	31 ff                	xor    %edi,%edi
    598b:	4c 89 74 24 18       	mov    %r14,0x18(%rsp)
    5990:	e8 1b 3f 00 00       	call   98b0 <pony_alloc_msg>
    5995:	48 8d 2d 64 02 02 00 	lea    0x20264(%rip),%rbp        # 25c00 <cycle_type+0x1ea0>
    599c:	48 89 df             	mov    %rbx,%rdi
    599f:	49 89 c5             	mov    %rax,%r13
    59a2:	48 89 68 10          	mov    %rbp,0x10(%rax)
    59a6:	e8 f5 98 00 00       	call   f2a0 <pony_gc_send>
    59ab:	b9 01 00 00 00       	mov    $0x1,%ecx
    59b0:	48 89 ee             	mov    %rbp,%rsi
    59b3:	48 89 df             	mov    %rbx,%rdi
    59b6:	4c 89 e2             	mov    %r12,%rdx
    59b9:	4c 89 e5             	mov    %r12,%rbp
    59bc:	e8 af 9a 00 00       	call   f470 <pony_traceknown>
    59c1:	48 89 df             	mov    %rbx,%rdi
    59c4:	e8 77 99 00 00       	call   f340 <pony_send_done>
    59c9:	41 b8 01 00 00 00    	mov    $0x1,%r8d
    59cf:	48 89 df             	mov    %rbx,%rdi
    59d2:	4c 89 fe             	mov    %r15,%rsi
    59d5:	4c 89 ea             	mov    %r13,%rdx
    59d8:	4c 89 e9             	mov    %r13,%rcx
    59db:	e8 10 3f 00 00       	call   98f0 <pony_sendv>
    59e0:	4d 8b 7e 18          	mov    0x18(%r14),%r15
    59e4:	be 01 00 00 00       	mov    $0x1,%esi
    59e9:	31 ff                	xor    %edi,%edi
    59eb:	e8 c0 3e 00 00       	call   98b0 <pony_alloc_msg>
    59f0:	4c 8d 2d 49 02 02 00 	lea    0x20249(%rip),%r13        # 25c40 <cycle_type+0x1ee0>
    59f7:	48 89 df             	mov    %rbx,%rdi
    59fa:	49 89 c4             	mov    %rax,%r12
    59fd:	4c 89 68 10          	mov    %r13,0x10(%rax)
    5a01:	e8 9a 98 00 00       	call   f2a0 <pony_gc_send>
    5a06:	b9 01 00 00 00       	mov    $0x1,%ecx
    5a0b:	48 89 df             	mov    %rbx,%rdi
    5a0e:	4c 89 ee             	mov    %r13,%rsi
    5a11:	48 89 ea             	mov    %rbp,%rdx
    5a14:	e8 57 9a 00 00       	call   f470 <pony_traceknown>
    5a19:	48 89 df             	mov    %rbx,%rdi
    5a1c:	e8 1f 99 00 00       	call   f340 <pony_send_done>
    5a21:	41 b8 01 00 00 00    	mov    $0x1,%r8d
    5a27:	48 89 df             	mov    %rbx,%rdi
    5a2a:	4c 89 fe             	mov    %r15,%rsi
    5a2d:	4c 89 e2             	mov    %r12,%rdx
    5a30:	4c 89 e1             	mov    %r12,%rcx
    5a33:	e8 b8 3e 00 00       	call   98f0 <pony_sendv>
    5a38:	bf 01 00 00 00       	mov    $0x1,%edi
    5a3d:	c5 f8 57 c0          	vxorps %xmm0,%xmm0,%xmm0
    5a41:	48 89 e6             	mov    %rsp,%rsi
    5a44:	c5 f8 29 04 24       	vmovaps %xmm0,(%rsp)
    5a49:	e8 c2 f6 ff ff       	call   5110 <clock_gettime@plt>
    5a4e:	48 b8 25 cb 49 28 7d 	movabs $0xbce4217d2849cb25,%rax
    5a55:	21 e4 bc 
    5a58:	4c 8b 3c 24          	mov    (%rsp),%r15
    5a5c:	be 80 96 98 00       	mov    $0x989680,%esi
    5a61:	48 f7 6c 24 08       	imulq  0x8(%rsp)
    5a66:	49 89 d6             	mov    %rdx,%r14
    5a69:	49 c1 ee 3f          	shr    $0x3f,%r14
    5a6d:	48 c1 fa 12          	sar    $0x12,%rdx
    5a71:	49 01 d6             	add    %rdx,%r14
    5a74:	e8 67 28 00 00       	call   82e0 <Main_runtime_override_defaults_oo+0x19b0>
    5a79:	bf 01 00 00 00       	mov    $0x1,%edi
    5a7e:	c5 f8 57 c0          	vxorps %xmm0,%xmm0,%xmm0
    5a82:	48 89 e6             	mov    %rsp,%rsi
    5a85:	49 89 c5             	mov    %rax,%r13
    5a88:	c5 f8 29 04 24       	vmovaps %xmm0,(%rsp)
    5a8d:	e8 7e f6 ff ff       	call   5110 <clock_gettime@plt>
    5a92:	48 8b 0c 24          	mov    (%rsp),%rcx
    5a96:	48 b8 db 34 b6 d7 82 	movabs $0x431bde82d7b634db,%rax
    5a9d:	de 1b 43 
    5aa0:	4c 8b 64 24 18       	mov    0x18(%rsp),%r12
    5aa5:	be 01 00 00 00       	mov    $0x1,%esi
    5aaa:	31 ff                	xor    %edi,%edi
    5aac:	48 f7 6c 24 08       	imulq  0x8(%rsp)
    5ab1:	4c 29 f9             	sub    %r15,%rcx
    5ab4:	48 89 d0             	mov    %rdx,%rax
    5ab7:	4d 8b 7c 24 18       	mov    0x18(%r12),%r15
    5abc:	48 c1 e8 3f          	shr    $0x3f,%rax
    5ac0:	48 c1 fa 12          	sar    $0x12,%rdx
    5ac4:	48 69 c9 e8 03 00 00 	imul   $0x3e8,%rcx,%rcx
    5acb:	48 01 d0             	add    %rdx,%rax
    5ace:	4c 01 f0             	add    %r14,%rax
    5ad1:	48 01 c1             	add    %rax,%rcx
    5ad4:	48 89 4c 24 20       	mov    %rcx,0x20(%rsp)
    5ad9:	e8 d2 3d 00 00       	call   98b0 <pony_alloc_msg>
    5ade:	4c 8d 35 7b 01 02 00 	lea    0x2017b(%rip),%r14        # 25c60 <cycle_type+0x1f00>
    5ae5:	48 89 df             	mov    %rbx,%rdi
    5ae8:	48 89 c5             	mov    %rax,%rbp
    5aeb:	4c 89 70 10          	mov    %r14,0x10(%rax)
    5aef:	e8 ac 97 00 00       	call   f2a0 <pony_gc_send>
    5af4:	48 8d 15 f5 e9 01 00 	lea    0x1e9f5(%rip),%rdx        # 244f0 <cycle_type+0x790>
    5afb:	b9 01 00 00 00       	mov    $0x1,%ecx
    5b00:	48 89 df             	mov    %rbx,%rdi
    5b03:	4c 89 f6             	mov    %r14,%rsi
    5b06:	e8 65 99 00 00       	call   f470 <pony_traceknown>
    5b0b:	48 89 df             	mov    %rbx,%rdi
    5b0e:	e8 2d 98 00 00       	call   f340 <pony_send_done>
    5b13:	41 b8 01 00 00 00    	mov    $0x1,%r8d
    5b19:	48 89 df             	mov    %rbx,%rdi
    5b1c:	4c 89 fe             	mov    %r15,%rsi
    5b1f:	48 89 ea             	mov    %rbp,%rdx
    5b22:	48 89 e9             	mov    %rbp,%rcx
    5b25:	e8 c6 3d 00 00       	call   98f0 <pony_sendv>
    5b2a:	4c 89 ee             	mov    %r13,%rsi
    5b2d:	48 f7 de             	neg    %rsi
    5b30:	49 0f 48 f5          	cmovs  %r13,%rsi
    5b34:	49 c1 ed 3f          	shr    $0x3f,%r13
    5b38:	44 89 ea             	mov    %r13d,%edx
    5b3b:	e8 40 09 00 00       	call   6480 <__DescOffsetLookupFn+0x620>
    5b40:	48 8d 3d 39 01 02 00 	lea    0x20139(%rip),%rdi        # 25c80 <cycle_type+0x1f20>
    5b47:	48 89 c6             	mov    %rax,%rsi
    5b4a:	e8 21 10 00 00       	call   6b70 <Main_runtime_override_defaults_oo+0x240>
    5b4f:	4d 8b 7c 24 18       	mov    0x18(%r12),%r15
    5b54:	be 01 00 00 00       	mov    $0x1,%esi
    5b59:	31 ff                	xor    %edi,%edi
    5b5b:	49 89 c6             	mov    %rax,%r14
    5b5e:	e8 4d 3d 00 00       	call   98b0 <pony_alloc_msg>
    5b63:	48 89 df             	mov    %rbx,%rdi
    5b66:	49 89 c5             	mov    %rax,%r13
    5b69:	4c 89 70 10          	mov    %r14,0x10(%rax)
    5b6d:	e8 2e 97 00 00       	call   f2a0 <pony_gc_send>
    5b72:	48 8d 15 77 e9 01 00 	lea    0x1e977(%rip),%rdx        # 244f0 <cycle_type+0x790>
    5b79:	b9 01 00 00 00       	mov    $0x1,%ecx
    5b7e:	48 89 df             	mov    %rbx,%rdi
    5b81:	4c 89 f6             	mov    %r14,%rsi
    5b84:	e8 e7 98 00 00       	call   f470 <pony_traceknown>
    5b89:	48 89 df             	mov    %rbx,%rdi
    5b8c:	e8 af 97 00 00       	call   f340 <pony_send_done>
    5b91:	41 b8 01 00 00 00    	mov    $0x1,%r8d
    5b97:	48 89 df             	mov    %rbx,%rdi
    5b9a:	4c 89 fe             	mov    %r15,%rsi
    5b9d:	4c 89 ea             	mov    %r13,%rdx
    5ba0:	4c 89 e9             	mov    %r13,%rcx
    5ba3:	e8 48 3d 00 00       	call   98f0 <pony_sendv>
    5ba8:	48 8b 74 24 20       	mov    0x20(%rsp),%rsi
    5bad:	31 d2                	xor    %edx,%edx
    5baf:	e8 cc 08 00 00       	call   6480 <__DescOffsetLookupFn+0x620>
    5bb4:	48 8d 3d 05 01 02 00 	lea    0x20105(%rip),%rdi        # 25cc0 <cycle_type+0x1f60>
    5bbb:	48 89 c6             	mov    %rax,%rsi
    5bbe:	e8 ad 0f 00 00       	call   6b70 <Main_runtime_override_defaults_oo+0x240>
    5bc3:	48 8d 35 d6 00 02 00 	lea    0x200d6(%rip),%rsi        # 25ca0 <cycle_type+0x1f40>
    5bca:	48 89 c7             	mov    %rax,%rdi
    5bcd:	e8 ce 0d 00 00       	call   69a0 <Main_runtime_override_defaults_oo+0x70>
    5bd2:	4d 8b 7c 24 18       	mov    0x18(%r12),%r15
    5bd7:	be 01 00 00 00       	mov    $0x1,%esi
    5bdc:	31 ff                	xor    %edi,%edi
    5bde:	49 89 c6             	mov    %rax,%r14
    5be1:	e8 ca 3c 00 00       	call   98b0 <pony_alloc_msg>
    5be6:	48 89 df             	mov    %rbx,%rdi
    5be9:	49 89 c4             	mov    %rax,%r12
    5bec:	4c 89 70 10          	mov    %r14,0x10(%rax)
    5bf0:	e8 ab 96 00 00       	call   f2a0 <pony_gc_send>
    5bf5:	48 8d 15 f4 e8 01 00 	lea    0x1e8f4(%rip),%rdx        # 244f0 <cycle_type+0x790>
    5bfc:	b9 01 00 00 00       	mov    $0x1,%ecx
    5c01:	48 89 df             	mov    %rbx,%rdi
    5c04:	4c 89 f6             	mov    %r14,%rsi
    5c07:	e8 64 98 00 00       	call   f470 <pony_traceknown>
    5c0c:	48 89 df             	mov    %rbx,%rdi
    5c0f:	e8 2c 97 00 00       	call   f340 <pony_send_done>
    5c14:	41 b8 01 00 00 00    	mov    $0x1,%r8d
    5c1a:	48 89 df             	mov    %rbx,%rdi
    5c1d:	4c 89 fe             	mov    %r15,%rsi
    5c20:	4c 89 e2             	mov    %r12,%rdx
    5c23:	4c 89 e1             	mov    %r12,%rcx
    5c26:	e8 c5 3c 00 00       	call   98f0 <pony_sendv>
    5c2b:	48 83 c4 28          	add    $0x28,%rsp
    5c2f:	5b                   	pop    %rbx
    5c30:	41 5c                	pop    %r12
    5c32:	41 5d                	pop    %r13
    5c34:	41 5e                	pop    %r14
    5c36:	41 5f                	pop    %r15
    5c38:	5d                   	pop    %rbp
    5c39:	c3                   	ret
    5c3a:	66 0f 1f 44 00 00    	nopw   0x0(%rax,%rax,1)

0000000000005c40 <String_Trace>:
    5c40:	48 8b 76 18          	mov    0x18(%rsi),%rsi
    5c44:	48 8d 15 15 fd 01 00 	lea    0x1fd15(%rip),%rdx        # 25960 <cycle_type+0x1c00>
    5c4b:	31 c9                	xor    %ecx,%ecx
    5c4d:	e9 1e 98 00 00       	jmp    f470 <pony_traceknown>
    5c52:	66 66 66 66 66 2e 0f 	data16 data16 data16 data16 cs nopw 0x0(%rax,%rax,1)
    5c59:	1f 84 00 00 00 00 00 

0000000000005c60 <Array_String_val_Trace>:
    5c60:	41 57                	push   %r15
    5c62:	41 56                	push   %r14
    5c64:	41 55                	push   %r13
    5c66:	41 54                	push   %r12
    5c68:	53                   	push   %rbx
    5c69:	4c 8b 76 18          	mov    0x18(%rsi),%r14
    5c6d:	49 89 f7             	mov    %rsi,%r15
    5c70:	48 89 fb             	mov    %rdi,%rbx
    5c73:	4c 89 f6             	mov    %r14,%rsi
    5c76:	e8 e5 97 00 00       	call   f460 <pony_trace>
    5c7b:	4d 8b 67 08          	mov    0x8(%r15),%r12
    5c7f:	4d 85 e4             	test   %r12,%r12
    5c82:	74 28                	je     5cac <Array_String_val_Trace+0x4c>
    5c84:	4c 8d 3d 65 e8 01 00 	lea    0x1e865(%rip),%r15        # 244f0 <cycle_type+0x790>
    5c8b:	45 31 ed             	xor    %r13d,%r13d
    5c8e:	66 90                	xchg   %ax,%ax
    5c90:	4b 8b 34 ee          	mov    (%r14,%r13,8),%rsi
    5c94:	b9 01 00 00 00       	mov    $0x1,%ecx
    5c99:	48 89 df             	mov    %rbx,%rdi
    5c9c:	4c 89 fa             	mov    %r15,%rdx
    5c9f:	e8 cc 97 00 00       	call   f470 <pony_traceknown>
    5ca4:	49 ff c5             	inc    %r13
    5ca7:	4d 39 ec             	cmp    %r13,%r12
    5caa:	75 e4                	jne    5c90 <Array_String_val_Trace+0x30>
    5cac:	5b                   	pop    %rbx
    5cad:	41 5c                	pop    %r12
    5caf:	41 5d                	pop    %r13
    5cb1:	41 5e                	pop    %r14
    5cb3:	41 5f                	pop    %r15
    5cb5:	c3                   	ret
    5cb6:	66 2e 0f 1f 84 00 00 	cs nopw 0x0(%rax,%rax,1)
    5cbd:	00 00 00 

0000000000005cc0 <Stdin_Dispatch>:
    5cc0:	55                   	push   %rbp
    5cc1:	41 57                	push   %r15
    5cc3:	41 56                	push   %r14
    5cc5:	53                   	push   %rbx
    5cc6:	50                   	push   %rax
    5cc7:	8b 42 04             	mov    0x4(%rdx),%eax
    5cca:	85 c0                	test   %eax,%eax
    5ccc:	74 44                	je     5d12 <Stdin_Dispatch+0x52>
    5cce:	83 f8 01             	cmp    $0x1,%eax
    5cd1:	0f 85 84 00 00 00    	jne    5d5b <Stdin_Dispatch+0x9b>
    5cd7:	0f b6 42 10          	movzbl 0x10(%rdx),%eax
    5cdb:	48 8d 0d d6 fe 01 00 	lea    0x1fed6(%rip),%rcx        # 25bb8 <cycle_type+0x1e58>
    5ce2:	48 89 8e 30 01 00 00 	mov    %rcx,0x130(%rsi)
    5ce9:	48 c7 86 38 01 00 00 	movq   $0x20,0x138(%rsi)
    5cf0:	20 00 00 00 
    5cf4:	48 c7 86 40 01 00 00 	movq   $0x0,0x140(%rsi)
    5cfb:	00 00 00 00 
    5cff:	24 01                	and    $0x1,%al
    5d01:	88 86 48 01 00 00    	mov    %al,0x148(%rsi)
    5d07:	48 83 c4 08          	add    $0x8,%rsp
    5d0b:	5b                   	pop    %rbx
    5d0c:	41 5e                	pop    %r14
    5d0e:	41 5f                	pop    %r15
    5d10:	5d                   	pop    %rbp
    5d11:	c3                   	ret
    5d12:	48 8b 5a 10          	mov    0x10(%rdx),%rbx
    5d16:	8b 6a 18             	mov    0x18(%rdx),%ebp
    5d19:	49 89 f7             	mov    %rsi,%r15
    5d1c:	49 89 fe             	mov    %rdi,%r14
    5d1f:	e8 9c 95 00 00       	call   f2c0 <pony_gc_recv>
    5d24:	48 8d 15 d5 e3 01 00 	lea    0x1e3d5(%rip),%rdx        # 24100 <cycle_type+0x3a0>
    5d2b:	b9 02 00 00 00       	mov    $0x2,%ecx
    5d30:	4c 89 f7             	mov    %r14,%rdi
    5d33:	48 89 de             	mov    %rbx,%rsi
    5d36:	e8 35 97 00 00       	call   f470 <pony_traceknown>
    5d3b:	4c 89 f7             	mov    %r14,%rdi
    5d3e:	e8 2d 96 00 00       	call   f370 <pony_recv_done>
    5d43:	85 ed                	test   %ebp,%ebp
    5d45:	74 26                	je     5d6d <Stdin_Dispatch+0xad>
    5d47:	40 f6 c5 01          	test   $0x1,%bpl
    5d4b:	74 ba                	je     5d07 <Stdin_Dispatch+0x47>
    5d4d:	4c 89 ff             	mov    %r15,%rdi
    5d50:	49 39 9f 40 01 00 00 	cmp    %rbx,0x140(%r15)
    5d57:	74 05                	je     5d5e <Stdin_Dispatch+0x9e>
    5d59:	eb ac                	jmp    5d07 <Stdin_Dispatch+0x47>
    5d5b:	48 89 f7             	mov    %rsi,%rdi
    5d5e:	48 83 c4 08          	add    $0x8,%rsp
    5d62:	5b                   	pop    %rbx
    5d63:	41 5e                	pop    %r14
    5d65:	41 5f                	pop    %r15
    5d67:	5d                   	pop    %rbp
    5d68:	e9 b3 18 00 00       	jmp    7620 <Main_runtime_override_defaults_oo+0xcf0>
    5d6d:	48 89 df             	mov    %rbx,%rdi
    5d70:	48 83 c4 08          	add    $0x8,%rsp
    5d74:	5b                   	pop    %rbx
    5d75:	41 5e                	pop    %r14
    5d77:	41 5f                	pop    %r15
    5d79:	5d                   	pop    %rbp
    5d7a:	e9 f1 51 00 00       	jmp    af70 <pony_asio_event_destroy>
    5d7f:	90                   	nop

0000000000005d80 <Stdin_Trace>:
    5d80:	41 56                	push   %r14
    5d82:	53                   	push   %rbx
    5d83:	50                   	push   %rax
    5d84:	48 89 f3             	mov    %rsi,%rbx
    5d87:	48 8b b6 30 01 00 00 	mov    0x130(%rsi),%rsi
    5d8e:	31 d2                	xor    %edx,%edx
    5d90:	49 89 fe             	mov    %rdi,%r14
    5d93:	e8 f8 96 00 00       	call   f490 <pony_traceunknown>
    5d98:	48 8b b3 40 01 00 00 	mov    0x140(%rbx),%rsi
    5d9f:	48 8d 15 5a e3 01 00 	lea    0x1e35a(%rip),%rdx        # 24100 <cycle_type+0x3a0>
    5da6:	4c 89 f7             	mov    %r14,%rdi
    5da9:	b9 02 00 00 00       	mov    $0x2,%ecx
    5dae:	48 83 c4 08          	add    $0x8,%rsp
    5db2:	5b                   	pop    %rbx
    5db3:	41 5e                	pop    %r14
    5db5:	e9 b6 96 00 00       	jmp    f470 <pony_traceknown>
    5dba:	66 0f 1f 44 00 00    	nopw   0x0(%rax,%rax,1)

0000000000005dc0 <Array_U8_val_Trace>:
    5dc0:	48 8b 76 18          	mov    0x18(%rsi),%rsi
    5dc4:	e9 97 96 00 00       	jmp    f460 <pony_trace>
    5dc9:	0f 1f 80 00 00 00 00 	nopl   0x0(%rax)

0000000000005dd0 <Env_Trace>:
    5dd0:	41 57                	push   %r15
    5dd2:	41 56                	push   %r14
    5dd4:	53                   	push   %rbx
    5dd5:	49 89 f6             	mov    %rsi,%r14
    5dd8:	48 8b 76 10          	mov    0x10(%rsi),%rsi
    5ddc:	ba 02 00 00 00       	mov    $0x2,%edx
    5de1:	48 89 fb             	mov    %rdi,%rbx
    5de4:	e8 a7 96 00 00       	call   f490 <pony_traceunknown>
    5de9:	49 8b 76 18          	mov    0x18(%r14),%rsi
    5ded:	ba 02 00 00 00       	mov    $0x2,%edx
    5df2:	48 89 df             	mov    %rbx,%rdi
    5df5:	e8 96 96 00 00       	call   f490 <pony_traceunknown>
    5dfa:	49 8b 76 20          	mov    0x20(%r14),%rsi
    5dfe:	ba 02 00 00 00       	mov    $0x2,%edx
    5e03:	48 89 df             	mov    %rbx,%rdi
    5e06:	e8 85 96 00 00       	call   f490 <pony_traceunknown>
    5e0b:	49 8b 76 28          	mov    0x28(%r14),%rsi
    5e0f:	4c 8d 3d 1a e8 01 00 	lea    0x1e81a(%rip),%r15        # 24630 <cycle_type+0x8d0>
    5e16:	b9 01 00 00 00       	mov    $0x1,%ecx
    5e1b:	48 89 df             	mov    %rbx,%rdi
    5e1e:	4c 89 fa             	mov    %r15,%rdx
    5e21:	e8 4a 96 00 00       	call   f470 <pony_traceknown>
    5e26:	49 8b 76 30          	mov    0x30(%r14),%rsi
    5e2a:	b9 01 00 00 00       	mov    $0x1,%ecx
    5e2f:	48 89 df             	mov    %rbx,%rdi
    5e32:	4c 89 fa             	mov    %r15,%rdx
    5e35:	e8 36 96 00 00       	call   f470 <pony_traceknown>
    5e3a:	49 8b 76 38          	mov    0x38(%r14),%rsi
    5e3e:	48 89 df             	mov    %rbx,%rdi
    5e41:	ba 01 00 00 00       	mov    $0x1,%edx
    5e46:	5b                   	pop    %rbx
    5e47:	41 5e                	pop    %r14
    5e49:	41 5f                	pop    %r15
    5e4b:	e9 40 96 00 00       	jmp    f490 <pony_traceunknown>

0000000000005e50 <Array_Bool_val_Trace>:
    5e50:	48 8b 76 18          	mov    0x18(%rsi),%rsi
    5e54:	e9 07 96 00 00       	jmp    f460 <pony_trace>
    5e59:	0f 1f 80 00 00 00 00 	nopl   0x0(%rax)

0000000000005e60 <__DescOffsetLookupFn>:
    5e60:	b8 ff ff ff ff       	mov    $0xffffffff,%eax
    5e65:	48 b9 35 8d d0 36 69 	movabs $0x553bc06936d08d35,%rcx
    5e6c:	c0 3b 55 
    5e6f:	48 39 cf             	cmp    %rcx,%rdi
    5e72:	7f 65                	jg     5ed9 <__DescOffsetLookupFn+0x79>
    5e74:	48 b9 b4 ed a2 08 64 	movabs $0x3111986408a2edb4,%rcx
    5e7b:	98 11 31 
    5e7e:	48 39 cf             	cmp    %rcx,%rdi
    5e81:	0f 8e b7 00 00 00    	jle    5f3e <__DescOffsetLookupFn+0xde>
    5e87:	48 b9 a7 da 6b d1 02 	movabs $0x3be4fe02d16bdaa7,%rcx
    5e8e:	fe e4 3b 
    5e91:	48 39 cf             	cmp    %rcx,%rdi
    5e94:	0f 8e 48 01 00 00    	jle    5fe2 <__DescOffsetLookupFn+0x182>
    5e9a:	48 b9 b2 81 5d 46 ac 	movabs $0x4217dbac465d81b2,%rcx
    5ea1:	db 17 42 
    5ea4:	48 39 cf             	cmp    %rcx,%rdi
    5ea7:	0f 8f 31 02 00 00    	jg     60de <__DescOffsetLookupFn+0x27e>
    5ead:	48 b9 a8 da 6b d1 02 	movabs $0x3be4fe02d16bdaa8,%rcx
    5eb4:	fe e4 3b 
    5eb7:	48 39 cf             	cmp    %rcx,%rdi
    5eba:	0f 84 67 02 00 00    	je     6127 <__DescOffsetLookupFn+0x2c7>
    5ec0:	48 b9 8a c5 ae e0 ed 	movabs $0x3c0372ede0aec58a,%rcx
    5ec7:	72 03 3c 
    5eca:	48 39 cf             	cmp    %rcx,%rdi
    5ecd:	0f 85 b3 02 00 00    	jne    6186 <__DescOffsetLookupFn+0x326>
    5ed3:	b8 15 00 00 00       	mov    $0x15,%eax
    5ed8:	c3                   	ret
    5ed9:	48 b9 e8 51 19 7d c9 	movabs $0x662bf2c97d1951e8,%rcx
    5ee0:	f2 2b 66 
    5ee3:	48 39 cf             	cmp    %rcx,%rdi
    5ee6:	0f 8e a4 00 00 00    	jle    5f90 <__DescOffsetLookupFn+0x130>
    5eec:	48 b9 98 38 b7 a8 03 	movabs $0x7512ee03a8b73898,%rcx
    5ef3:	ee 12 75 
    5ef6:	48 39 cf             	cmp    %rcx,%rdi
    5ef9:	0f 8e 22 01 00 00    	jle    6021 <__DescOffsetLookupFn+0x1c1>
    5eff:	48 b9 19 73 d2 19 e8 	movabs $0x7dab41e819d27319,%rcx
    5f06:	41 ab 7d 
    5f09:	48 39 cf             	cmp    %rcx,%rdi
    5f0c:	0f 8f f1 01 00 00    	jg     6103 <__DescOffsetLookupFn+0x2a3>
    5f12:	48 b9 99 38 b7 a8 03 	movabs $0x7512ee03a8b73899,%rcx
    5f19:	ee 12 75 
    5f1c:	48 39 cf             	cmp    %rcx,%rdi
    5f1f:	0f 84 08 02 00 00    	je     612d <__DescOffsetLookupFn+0x2cd>
    5f25:	48 b9 53 1b 06 0b 1f 	movabs $0x757f7d1f0b061b53,%rcx
    5f2c:	7d 7f 75 
    5f2f:	48 39 cf             	cmp    %rcx,%rdi
    5f32:	0f 85 4e 02 00 00    	jne    6186 <__DescOffsetLookupFn+0x326>
    5f38:	b8 0b 00 00 00       	mov    $0xb,%eax
    5f3d:	c3                   	ret
    5f3e:	48 b9 a3 b3 fd dc fa 	movabs $0x1df00ffadcfdb3a3,%rcx
    5f45:	0f f0 1d 
    5f48:	48 39 cf             	cmp    %rcx,%rdi
    5f4b:	0f 8f 0f 01 00 00    	jg     6060 <__DescOffsetLookupFn+0x200>
    5f51:	48 b9 76 05 84 7f 01 	movabs $0x9100f017f840576,%rcx
    5f58:	0f 10 09 
    5f5b:	48 39 cf             	cmp    %rcx,%rdi
    5f5e:	0f 84 e7 01 00 00    	je     614b <__DescOffsetLookupFn+0x2eb>
    5f64:	48 b9 b8 5a 20 59 fa 	movabs $0xb4020fa59205ab8,%rcx
    5f6b:	20 40 0b 
    5f6e:	48 39 cf             	cmp    %rcx,%rdi
    5f71:	0f 84 f8 01 00 00    	je     616f <__DescOffsetLookupFn+0x30f>
    5f77:	48 b9 f2 a7 06 24 33 	movabs $0xb5525332406a7f2,%rcx
    5f7e:	25 55 0b 
    5f81:	48 39 cf             	cmp    %rcx,%rdi
    5f84:	0f 85 fc 01 00 00    	jne    6186 <__DescOffsetLookupFn+0x326>
    5f8a:	b8 21 00 00 00       	mov    $0x21,%eax
    5f8f:	c3                   	ret
    5f90:	48 b9 6d 21 fb d6 40 	movabs $0x58d1bd40d6fb216d,%rcx
    5f97:	bd d1 58 
    5f9a:	48 39 cf             	cmp    %rcx,%rdi
    5f9d:	0f 8f fc 00 00 00    	jg     609f <__DescOffsetLookupFn+0x23f>
    5fa3:	48 b9 36 8d d0 36 69 	movabs $0x553bc06936d08d36,%rcx
    5faa:	c0 3b 55 
    5fad:	48 39 cf             	cmp    %rcx,%rdi
    5fb0:	0f 84 9b 01 00 00    	je     6151 <__DescOffsetLookupFn+0x2f1>
    5fb6:	48 b9 09 d3 08 44 7b 	movabs $0x56802e7b4408d309,%rcx
    5fbd:	2e 80 56 
    5fc0:	48 39 cf             	cmp    %rcx,%rdi
    5fc3:	0f 84 ac 01 00 00    	je     6175 <__DescOffsetLookupFn+0x315>
    5fc9:	48 b9 dc 28 27 f0 b6 	movabs $0x573b27b6f02728dc,%rcx
    5fd0:	27 3b 57 
    5fd3:	48 39 cf             	cmp    %rcx,%rdi
    5fd6:	0f 85 aa 01 00 00    	jne    6186 <__DescOffsetLookupFn+0x326>
    5fdc:	b8 17 00 00 00       	mov    $0x17,%eax
    5fe1:	c3                   	ret
    5fe2:	48 b9 b5 ed a2 08 64 	movabs $0x3111986408a2edb5,%rcx
    5fe9:	98 11 31 
    5fec:	48 39 cf             	cmp    %rcx,%rdi
    5fef:	0f 84 4a 01 00 00    	je     613f <__DescOffsetLookupFn+0x2df>
    5ff5:	48 b9 05 61 43 86 41 	movabs $0x38320e4186436105,%rcx
    5ffc:	0e 32 38 
    5fff:	48 39 cf             	cmp    %rcx,%rdi
    6002:	0f 84 5b 01 00 00    	je     6163 <__DescOffsetLookupFn+0x303>
    6008:	48 b9 7f 02 f4 ab 4c 	movabs $0x3b58a84cabf4027f,%rcx
    600f:	a8 58 3b 
    6012:	48 39 cf             	cmp    %rcx,%rdi
    6015:	0f 85 6b 01 00 00    	jne    6186 <__DescOffsetLookupFn+0x326>
    601b:	b8 01 00 00 00       	mov    $0x1,%eax
    6020:	c3                   	ret
    6021:	48 b9 e9 51 19 7d c9 	movabs $0x662bf2c97d1951e9,%rcx
    6028:	f2 2b 66 
    602b:	48 39 cf             	cmp    %rcx,%rdi
    602e:	0f 84 11 01 00 00    	je     6145 <__DescOffsetLookupFn+0x2e5>
    6034:	48 b9 a2 20 b8 d7 90 	movabs $0x67a74290d7b820a2,%rcx
    603b:	42 a7 67 
    603e:	48 39 cf             	cmp    %rcx,%rdi
    6041:	0f 84 22 01 00 00    	je     6169 <__DescOffsetLookupFn+0x309>
    6047:	48 b9 ac 8f 3c 1e de 	movabs $0x68d648de1e3c8fac,%rcx
    604e:	48 d6 68 
    6051:	48 39 cf             	cmp    %rcx,%rdi
    6054:	0f 85 2c 01 00 00    	jne    6186 <__DescOffsetLookupFn+0x326>
    605a:	b8 1f 00 00 00       	mov    $0x1f,%eax
    605f:	c3                   	ret
    6060:	48 b9 a4 b3 fd dc fa 	movabs $0x1df00ffadcfdb3a4,%rcx
    6067:	0f f0 1d 
    606a:	48 39 cf             	cmp    %rcx,%rdi
    606d:	0f 84 e4 00 00 00    	je     6157 <__DescOffsetLookupFn+0x2f7>
    6073:	48 b9 d8 20 05 53 4a 	movabs $0x1f69e64a530520d8,%rcx
    607a:	e6 69 1f 
    607d:	48 39 cf             	cmp    %rcx,%rdi
    6080:	0f 84 f5 00 00 00    	je     617b <__DescOffsetLookupFn+0x31b>
    6086:	48 b9 68 b7 37 2d 1e 	movabs $0x2d85fc1e2d37b768,%rcx
    608d:	fc 85 2d 
    6090:	48 39 cf             	cmp    %rcx,%rdi
    6093:	0f 85 ed 00 00 00    	jne    6186 <__DescOffsetLookupFn+0x326>
    6099:	b8 0d 00 00 00       	mov    $0xd,%eax
    609e:	c3                   	ret
    609f:	48 b9 6e 21 fb d6 40 	movabs $0x58d1bd40d6fb216e,%rcx
    60a6:	bd d1 58 
    60a9:	48 39 cf             	cmp    %rcx,%rdi
    60ac:	0f 84 ab 00 00 00    	je     615d <__DescOffsetLookupFn+0x2fd>
    60b2:	48 b9 3d 16 ad b6 32 	movabs $0x615a5f32b6ad163d,%rcx
    60b9:	5f 5a 61 
    60bc:	48 39 cf             	cmp    %rcx,%rdi
    60bf:	0f 84 bc 00 00 00    	je     6181 <__DescOffsetLookupFn+0x321>
    60c5:	48 b9 b2 9e 84 66 ad 	movabs $0x6357f1ad66849eb2,%rcx
    60cc:	f1 57 63 
    60cf:	48 39 cf             	cmp    %rcx,%rdi
    60d2:	0f 85 ae 00 00 00    	jne    6186 <__DescOffsetLookupFn+0x326>
    60d8:	b8 1c 00 00 00       	mov    $0x1c,%eax
    60dd:	c3                   	ret
    60de:	48 b9 b3 81 5d 46 ac 	movabs $0x4217dbac465d81b3,%rcx
    60e5:	db 17 42 
    60e8:	48 39 cf             	cmp    %rcx,%rdi
    60eb:	74 46                	je     6133 <__DescOffsetLookupFn+0x2d3>
    60ed:	48 b9 0f 6a ca 35 a5 	movabs $0x480d2fa535ca6a0f,%rcx
    60f4:	2f 0d 48 
    60f7:	48 39 cf             	cmp    %rcx,%rdi
    60fa:	0f 85 86 00 00 00    	jne    6186 <__DescOffsetLookupFn+0x326>
    6100:	31 c0                	xor    %eax,%eax
    6102:	c3                   	ret
    6103:	48 b9 1a 73 d2 19 e8 	movabs $0x7dab41e819d2731a,%rcx
    610a:	41 ab 7d 
    610d:	48 39 cf             	cmp    %rcx,%rdi
    6110:	74 27                	je     6139 <__DescOffsetLookupFn+0x2d9>
    6112:	48 b9 ed 53 56 3f 16 	movabs $0x7f01cd163f5653ed,%rcx
    6119:	cd 01 7f 
    611c:	48 39 cf             	cmp    %rcx,%rdi
    611f:	75 65                	jne    6186 <__DescOffsetLookupFn+0x326>
    6121:	b8 1d 00 00 00       	mov    $0x1d,%eax
    6126:	c3                   	ret
    6127:	b8 0c 00 00 00       	mov    $0xc,%eax
    612c:	c3                   	ret
    612d:	b8 14 00 00 00       	mov    $0x14,%eax
    6132:	c3                   	ret
    6133:	b8 19 00 00 00       	mov    $0x19,%eax
    6138:	c3                   	ret
    6139:	b8 11 00 00 00       	mov    $0x11,%eax
    613e:	c3                   	ret
    613f:	b8 10 00 00 00       	mov    $0x10,%eax
    6144:	c3                   	ret
    6145:	b8 03 00 00 00       	mov    $0x3,%eax
    614a:	c3                   	ret
    614b:	b8 02 00 00 00       	mov    $0x2,%eax
    6150:	c3                   	ret
    6151:	b8 1b 00 00 00       	mov    $0x1b,%eax
    6156:	c3                   	ret
    6157:	b8 07 00 00 00       	mov    $0x7,%eax
    615c:	c3                   	ret
    615d:	b8 09 00 00 00       	mov    $0x9,%eax
    6162:	c3                   	ret
    6163:	b8 04 00 00 00       	mov    $0x4,%eax
    6168:	c3                   	ret
    6169:	b8 0f 00 00 00       	mov    $0xf,%eax
    616e:	c3                   	ret
    616f:	b8 05 00 00 00       	mov    $0x5,%eax
    6174:	c3                   	ret
    6175:	b8 18 00 00 00       	mov    $0x18,%eax
    617a:	c3                   	ret
    617b:	b8 13 00 00 00       	mov    $0x13,%eax
    6180:	c3                   	ret
    6181:	b8 08 00 00 00       	mov    $0x8,%eax
    6186:	c3                   	ret
    6187:	66 0f 1f 84 00 00 00 	nopw   0x0(%rax,%rax,1)
    618e:	00 00 
    6190:	8b 47 08             	mov    0x8(%rdi),%eax
    6193:	c3                   	ret
    6194:	66 66 66 2e 0f 1f 84 	data16 data16 cs nopw 0x0(%rax,%rax,1)
    619b:	00 00 00 00 00 
    61a0:	48 8b 47 08          	mov    0x8(%rdi),%rax
    61a4:	c3                   	ret
    61a5:	66 66 2e 0f 1f 84 00 	data16 cs nopw 0x0(%rax,%rax,1)
    61ac:	00 00 00 00 
    61b0:	31 c0                	xor    %eax,%eax
    61b2:	c3                   	ret
    61b3:	66 66 66 66 2e 0f 1f 	data16 data16 data16 cs nopw 0x0(%rax,%rax,1)
    61ba:	84 00 00 00 00 00 
    61c0:	48 85 ff             	test   %rdi,%rdi
    61c3:	0f 94 c0             	sete   %al
    61c6:	c3                   	ret
    61c7:	66 0f 1f 84 00 00 00 	nopw   0x0(%rax,%rax,1)
    61ce:	00 00 
    61d0:	48 89 f8             	mov    %rdi,%rax
    61d3:	c3                   	ret
    61d4:	66 66 66 2e 0f 1f 84 	data16 data16 cs nopw 0x0(%rax,%rax,1)
    61db:	00 00 00 00 00 
    61e0:	55                   	push   %rbp
    61e1:	41 57                	push   %r15
    61e3:	41 56                	push   %r14
    61e5:	41 55                	push   %r13
    61e7:	41 54                	push   %r12
    61e9:	53                   	push   %rbx
    61ea:	48 83 ec 18          	sub    $0x18,%rsp
    61ee:	41 89 d5             	mov    %edx,%r13d
    61f1:	48 89 f3             	mov    %rsi,%rbx
    61f4:	e8 97 ce 00 00       	call   13090 <pony_ctx>
    61f9:	49 89 c6             	mov    %rax,%r14
    61fc:	48 89 c7             	mov    %rax,%rdi
    61ff:	31 f6                	xor    %esi,%esi
    6201:	e8 0a 3a 00 00       	call   9c10 <pony_alloc_small>
    6206:	48 8d 0d e3 e2 01 00 	lea    0x1e2e3(%rip),%rcx        # 244f0 <cycle_type+0x790>
    620d:	be 20 00 00 00       	mov    $0x20,%esi
    6212:	49 89 c7             	mov    %rax,%r15
    6215:	4c 89 f7             	mov    %r14,%rdi
    6218:	bd 20 00 00 00       	mov    $0x20,%ebp
    621d:	4c 89 74 24 10       	mov    %r14,0x10(%rsp)
    6222:	49 89 0f             	mov    %rcx,(%r15)
    6225:	49 c7 47 08 00 00 00 	movq   $0x0,0x8(%r15)
    622c:	00 
    622d:	49 c7 47 10 20 00 00 	movq   $0x20,0x10(%r15)
    6234:	00 
    6235:	e8 b6 39 00 00       	call   9bf0 <pony_alloc>
    623a:	49 89 c6             	mov    %rax,%r14
    623d:	49 89 47 18          	mov    %rax,0x18(%r15)
    6241:	c6 00 00             	movb   $0x0,(%rax)
    6244:	48 85 db             	test   %rbx,%rbx
    6247:	0f 84 44 01 00 00    	je     6391 <__DescOffsetLookupFn+0x531>
    624d:	48 be cd cc cc cc cc 	movabs $0xcccccccccccccccd,%rsi
    6254:	cc cc cc 
    6257:	48 8d 3d f2 3d 01 00 	lea    0x13df2(%rip),%rdi        # 1a050 <_IO_stdin_used+0x50>
    625e:	41 bc 01 00 00 00    	mov    $0x1,%r12d
    6264:	44 89 6c 24 04       	mov    %r13d,0x4(%rsp)
    6269:	4c 89 7c 24 08       	mov    %r15,0x8(%rsp)
    626e:	eb 49                	jmp    62b9 <__DescOffsetLookupFn+0x459>
    6270:	48 83 fd fe          	cmp    $0xfffffffffffffffe,%rbp
    6274:	48 c7 c0 fe ff ff ff 	mov    $0xfffffffffffffffe,%rax
    627b:	48 0f 43 e8          	cmovae %rax,%rbp
    627f:	48 8b 7c 24 10       	mov    0x10(%rsp),%rdi
    6284:	4c 89 f6             	mov    %r14,%rsi
    6287:	48 89 ea             	mov    %rbp,%rdx
    628a:	e8 c1 39 00 00       	call   9c50 <pony_realloc>
    628f:	48 be cd cc cc cc cc 	movabs $0xcccccccccccccccd,%rsi
    6296:	cc cc cc 
    6299:	48 8d 3d b0 3d 01 00 	lea    0x13db0(%rip),%rdi        # 1a050 <_IO_stdin_used+0x50>
    62a0:	49 89 c6             	mov    %rax,%r14
    62a3:	47 88 7c 26 ff       	mov    %r15b,-0x1(%r14,%r12,1)
    62a8:	43 c6 04 26 00       	movb   $0x0,(%r14,%r12,1)
    62ad:	49 ff c4             	inc    %r12
    62b0:	48 83 fb 0a          	cmp    $0xa,%rbx
    62b4:	4c 89 eb             	mov    %r13,%rbx
    62b7:	72 73                	jb     632c <__DescOffsetLookupFn+0x4cc>
    62b9:	48 89 da             	mov    %rbx,%rdx
    62bc:	c4 62 93 f6 ee       	mulx   %rsi,%r13,%r13
    62c1:	49 8d 4c 24 ff       	lea    -0x1(%r12),%rcx
    62c6:	49 c1 ed 03          	shr    $0x3,%r13
    62ca:	4b 8d 44 2d 00       	lea    0x0(%r13,%r13,1),%rax
    62cf:	48 8d 14 80          	lea    (%rax,%rax,4),%rdx
    62d3:	48 89 d8             	mov    %rbx,%rax
    62d6:	48 29 d0             	sub    %rdx,%rax
    62d9:	48 83 f8 0a          	cmp    $0xa,%rax
    62dd:	0f 83 62 01 00 00    	jae    6445 <__DescOffsetLookupFn+0x5e5>
    62e3:	44 0f b6 3c 38       	movzbl (%rax,%rdi,1),%r15d
    62e8:	4c 39 e5             	cmp    %r12,%rbp
    62eb:	77 b6                	ja     62a3 <__DescOffsetLookupFn+0x443>
    62ed:	4c 89 e5             	mov    %r12,%rbp
    62f0:	48 ff c5             	inc    %rbp
    62f3:	48 c7 c0 ff ff ff ff 	mov    $0xffffffffffffffff,%rax
    62fa:	48 0f 44 e8          	cmove  %rax,%rbp
    62fe:	48 85 ed             	test   %rbp,%rbp
    6301:	0f 88 69 ff ff ff    	js     6270 <__DescOffsetLookupFn+0x410>
    6307:	49 83 fc fe          	cmp    $0xfffffffffffffffe,%r12
    630b:	48 c7 c0 fe ff ff ff 	mov    $0xfffffffffffffffe,%rax
    6312:	ba 01 00 00 00       	mov    $0x1,%edx
    6317:	49 0f 42 c4          	cmovb  %r12,%rax
    631b:	f3 48 0f bd c0       	lzcnt  %rax,%rax
    6320:	f6 d8                	neg    %al
    6322:	c4 e2 f9 f7 ea       	shlx   %rax,%rdx,%rbp
    6327:	e9 53 ff ff ff       	jmp    627f <__DescOffsetLookupFn+0x41f>
    632c:	4c 8b 7c 24 08       	mov    0x8(%rsp),%r15
    6331:	49 ff cc             	dec    %r12
    6334:	4d 89 67 08          	mov    %r12,0x8(%r15)
    6338:	49 89 6f 10          	mov    %rbp,0x10(%r15)
    633c:	4d 89 77 18          	mov    %r14,0x18(%r15)
    6340:	44 8b 6c 24 04       	mov    0x4(%rsp),%r13d
    6345:	41 f6 c5 01          	test   $0x1,%r13b
    6349:	74 68                	je     63b3 <__DescOffsetLookupFn+0x553>
    634b:	49 8d 5c 24 01       	lea    0x1(%r12),%rbx
    6350:	48 39 dd             	cmp    %rbx,%rbp
    6353:	0f 87 8f 00 00 00    	ja     63e8 <__DescOffsetLookupFn+0x588>
    6359:	48 89 d9             	mov    %rbx,%rcx
    635c:	48 ff c1             	inc    %rcx
    635f:	48 c7 c0 ff ff ff ff 	mov    $0xffffffffffffffff,%rax
    6366:	48 0f 45 c1          	cmovne %rcx,%rax
    636a:	48 85 c0             	test   %rax,%rax
    636d:	78 4f                	js     63be <__DescOffsetLookupFn+0x55e>
    636f:	48 83 fb fe          	cmp    $0xfffffffffffffffe,%rbx
    6373:	48 c7 c0 fe ff ff ff 	mov    $0xfffffffffffffffe,%rax
    637a:	b9 01 00 00 00       	mov    $0x1,%ecx
    637f:	48 0f 42 c3          	cmovb  %rbx,%rax
    6383:	f3 48 0f bd c0       	lzcnt  %rax,%rax
    6388:	f6 d8                	neg    %al
    638a:	c4 e2 f9 f7 d1       	shlx   %rax,%rcx,%rdx
    638f:	eb 3c                	jmp    63cd <__DescOffsetLookupFn+0x56d>
    6391:	41 c6 06 30          	movb   $0x30,(%r14)
    6395:	49 c7 47 08 01 00 00 	movq   $0x1,0x8(%r15)
    639c:	00 
    639d:	41 c6 46 01 00       	movb   $0x0,0x1(%r14)
    63a2:	41 bc 01 00 00 00    	mov    $0x1,%r12d
    63a8:	bd 20 00 00 00       	mov    $0x20,%ebp
    63ad:	41 f6 c5 01          	test   $0x1,%r13b
    63b1:	75 98                	jne    634b <__DescOffsetLookupFn+0x4eb>
    63b3:	4c 89 e3             	mov    %r12,%rbx
    63b6:	48 83 fb 02          	cmp    $0x2,%rbx
    63ba:	73 45                	jae    6401 <__DescOffsetLookupFn+0x5a1>
    63bc:	eb 75                	jmp    6433 <__DescOffsetLookupFn+0x5d3>
    63be:	48 83 f8 fe          	cmp    $0xfffffffffffffffe,%rax
    63c2:	48 c7 c2 fe ff ff ff 	mov    $0xfffffffffffffffe,%rdx
    63c9:	48 0f 42 d0          	cmovb  %rax,%rdx
    63cd:	48 8b 7c 24 10       	mov    0x10(%rsp),%rdi
    63d2:	49 89 57 10          	mov    %rdx,0x10(%r15)
    63d6:	4c 89 f6             	mov    %r14,%rsi
    63d9:	4c 89 e1             	mov    %r12,%rcx
    63dc:	e8 6f 38 00 00       	call   9c50 <pony_realloc>
    63e1:	49 89 c6             	mov    %rax,%r14
    63e4:	49 89 47 18          	mov    %rax,0x18(%r15)
    63e8:	49 89 5f 08          	mov    %rbx,0x8(%r15)
    63ec:	43 c6 04 26 2d       	movb   $0x2d,(%r14,%r12,1)
    63f1:	4d 8b 77 18          	mov    0x18(%r15),%r14
    63f5:	43 c6 44 26 01 00    	movb   $0x0,0x1(%r14,%r12,1)
    63fb:	48 83 fb 02          	cmp    $0x2,%rbx
    63ff:	72 32                	jb     6433 <__DescOffsetLookupFn+0x5d3>
    6401:	48 ff cb             	dec    %rbx
    6404:	b8 01 00 00 00       	mov    $0x1,%eax
    6409:	0f 1f 80 00 00 00 00 	nopl   0x0(%rax)
    6410:	41 0f b6 4c 06 ff    	movzbl -0x1(%r14,%rax,1),%ecx
    6416:	41 0f b6 14 1e       	movzbl (%r14,%rbx,1),%edx
    641b:	41 88 54 06 ff       	mov    %dl,-0x1(%r14,%rax,1)
    6420:	41 88 0c 1e          	mov    %cl,(%r14,%rbx,1)
    6424:	48 ff cb             	dec    %rbx
    6427:	48 8d 48 01          	lea    0x1(%rax),%rcx
    642b:	48 39 d8             	cmp    %rbx,%rax
    642e:	48 89 c8             	mov    %rcx,%rax
    6431:	72 dd                	jb     6410 <__DescOffsetLookupFn+0x5b0>
    6433:	4c 89 f8             	mov    %r15,%rax
    6436:	48 83 c4 18          	add    $0x18,%rsp
    643a:	5b                   	pop    %rbx
    643b:	41 5c                	pop    %r12
    643d:	41 5d                	pop    %r13
    643f:	41 5e                	pop    %r14
    6441:	41 5f                	pop    %r15
    6443:	5d                   	pop    %rbp
    6444:	c3                   	ret
    6445:	48 8b 44 24 08       	mov    0x8(%rsp),%rax
    644a:	49 89 cc             	mov    %rcx,%r12
    644d:	48 89 48 08          	mov    %rcx,0x8(%rax)
    6451:	48 89 68 10          	mov    %rbp,0x10(%rax)
    6455:	4c 89 70 18          	mov    %r14,0x18(%rax)
    6459:	e8 62 90 00 00       	call   f4c0 <pony_error>
    645e:	4c 8b 7c 24 08       	mov    0x8(%rsp),%r15
    6463:	44 8b 6c 24 04       	mov    0x4(%rsp),%r13d
    6468:	41 f6 c5 01          	test   $0x1,%r13b
    646c:	0f 85 d9 fe ff ff    	jne    634b <__DescOffsetLookupFn+0x4eb>
    6472:	e9 3c ff ff ff       	jmp    63b3 <__DescOffsetLookupFn+0x553>
    6477:	66 0f 1f 84 00 00 00 	nopw   0x0(%rax,%rax,1)
    647e:	00 00 
    6480:	55                   	push   %rbp
    6481:	41 57                	push   %r15
    6483:	41 56                	push   %r14
    6485:	41 55                	push   %r13
    6487:	41 54                	push   %r12
    6489:	53                   	push   %rbx
    648a:	48 83 ec 18          	sub    $0x18,%rsp
    648e:	41 89 d5             	mov    %edx,%r13d
    6491:	48 89 f3             	mov    %rsi,%rbx
    6494:	e8 f7 cb 00 00       	call   13090 <pony_ctx>
    6499:	49 89 c6             	mov    %rax,%r14
    649c:	48 89 c7             	mov    %rax,%rdi
    649f:	31 f6                	xor    %esi,%esi
    64a1:	e8 6a 37 00 00       	call   9c10 <pony_alloc_small>
    64a6:	48 8d 0d 43 e0 01 00 	lea    0x1e043(%rip),%rcx        # 244f0 <cycle_type+0x790>
    64ad:	be 20 00 00 00       	mov    $0x20,%esi
    64b2:	49 89 c7             	mov    %rax,%r15
    64b5:	4c 89 f7             	mov    %r14,%rdi
    64b8:	bd 20 00 00 00       	mov    $0x20,%ebp
    64bd:	4c 89 74 24 10       	mov    %r14,0x10(%rsp)
    64c2:	49 89 0f             	mov    %rcx,(%r15)
    64c5:	49 c7 47 08 00 00 00 	movq   $0x0,0x8(%r15)
    64cc:	00 
    64cd:	49 c7 47 10 20 00 00 	movq   $0x20,0x10(%r15)
    64d4:	00 
    64d5:	e8 16 37 00 00       	call   9bf0 <pony_alloc>
    64da:	49 89 c6             	mov    %rax,%r14
    64dd:	49 89 47 18          	mov    %rax,0x18(%r15)
    64e1:	c6 00 00             	movb   $0x0,(%rax)
    64e4:	48 85 db             	test   %rbx,%rbx
    64e7:	0f 84 44 01 00 00    	je     6631 <__DescOffsetLookupFn+0x7d1>
    64ed:	48 be cd cc cc cc cc 	movabs $0xcccccccccccccccd,%rsi
    64f4:	cc cc cc 
    64f7:	48 8d 3d 52 3b 01 00 	lea    0x13b52(%rip),%rdi        # 1a050 <_IO_stdin_used+0x50>
    64fe:	41 bc 01 00 00 00    	mov    $0x1,%r12d
    6504:	44 89 6c 24 04       	mov    %r13d,0x4(%rsp)
    6509:	4c 89 7c 24 08       	mov    %r15,0x8(%rsp)
    650e:	eb 49                	jmp    6559 <__DescOffsetLookupFn+0x6f9>
    6510:	48 83 fd fe          	cmp    $0xfffffffffffffffe,%rbp
    6514:	48 c7 c0 fe ff ff ff 	mov    $0xfffffffffffffffe,%rax
    651b:	48 0f 43 e8          	cmovae %rax,%rbp
    651f:	48 8b 7c 24 10       	mov    0x10(%rsp),%rdi
    6524:	4c 89 f6             	mov    %r14,%rsi
    6527:	48 89 ea             	mov    %rbp,%rdx
    652a:	e8 21 37 00 00       	call   9c50 <pony_realloc>
    652f:	48 be cd cc cc cc cc 	movabs $0xcccccccccccccccd,%rsi
    6536:	cc cc cc 
    6539:	48 8d 3d 10 3b 01 00 	lea    0x13b10(%rip),%rdi        # 1a050 <_IO_stdin_used+0x50>
    6540:	49 89 c6             	mov    %rax,%r14
    6543:	47 88 7c 26 ff       	mov    %r15b,-0x1(%r14,%r12,1)
    6548:	43 c6 04 26 00       	movb   $0x0,(%r14,%r12,1)
    654d:	49 ff c4             	inc    %r12
    6550:	48 83 fb 0a          	cmp    $0xa,%rbx
    6554:	4c 89 eb             	mov    %r13,%rbx
    6557:	72 73                	jb     65cc <__DescOffsetLookupFn+0x76c>
    6559:	48 89 da             	mov    %rbx,%rdx
    655c:	c4 62 93 f6 ee       	mulx   %rsi,%r13,%r13
    6561:	49 8d 4c 24 ff       	lea    -0x1(%r12),%rcx
    6566:	49 c1 ed 03          	shr    $0x3,%r13
    656a:	4b 8d 44 2d 00       	lea    0x0(%r13,%r13,1),%rax
    656f:	48 8d 14 80          	lea    (%rax,%rax,4),%rdx
    6573:	48 89 d8             	mov    %rbx,%rax
    6576:	48 29 d0             	sub    %rdx,%rax
    6579:	48 83 f8 0a          	cmp    $0xa,%rax
    657d:	0f 83 62 01 00 00    	jae    66e5 <__DescOffsetLookupFn+0x885>
    6583:	44 0f b6 3c 38       	movzbl (%rax,%rdi,1),%r15d
    6588:	4c 39 e5             	cmp    %r12,%rbp
    658b:	77 b6                	ja     6543 <__DescOffsetLookupFn+0x6e3>
    658d:	4c 89 e5             	mov    %r12,%rbp
    6590:	48 ff c5             	inc    %rbp
    6593:	48 c7 c0 ff ff ff ff 	mov    $0xffffffffffffffff,%rax
    659a:	48 0f 44 e8          	cmove  %rax,%rbp
    659e:	48 85 ed             	test   %rbp,%rbp
    65a1:	0f 88 69 ff ff ff    	js     6510 <__DescOffsetLookupFn+0x6b0>
    65a7:	49 83 fc fe          	cmp    $0xfffffffffffffffe,%r12
    65ab:	48 c7 c0 fe ff ff ff 	mov    $0xfffffffffffffffe,%rax
    65b2:	ba 01 00 00 00       	mov    $0x1,%edx
    65b7:	49 0f 42 c4          	cmovb  %r12,%rax
    65bb:	f3 48 0f bd c0       	lzcnt  %rax,%rax
    65c0:	f6 d8                	neg    %al
    65c2:	c4 e2 f9 f7 ea       	shlx   %rax,%rdx,%rbp
    65c7:	e9 53 ff ff ff       	jmp    651f <__DescOffsetLookupFn+0x6bf>
    65cc:	4c 8b 7c 24 08       	mov    0x8(%rsp),%r15
    65d1:	49 ff cc             	dec    %r12
    65d4:	4d 89 67 08          	mov    %r12,0x8(%r15)
    65d8:	49 89 6f 10          	mov    %rbp,0x10(%r15)
    65dc:	4d 89 77 18          	mov    %r14,0x18(%r15)
    65e0:	44 8b 6c 24 04       	mov    0x4(%rsp),%r13d
    65e5:	41 f6 c5 01          	test   $0x1,%r13b
    65e9:	74 68                	je     6653 <__DescOffsetLookupFn+0x7f3>
    65eb:	49 8d 5c 24 01       	lea    0x1(%r12),%rbx
    65f0:	48 39 dd             	cmp    %rbx,%rbp
    65f3:	0f 87 8f 00 00 00    	ja     6688 <__DescOffsetLookupFn+0x828>
    65f9:	48 89 d9             	mov    %rbx,%rcx
    65fc:	48 ff c1             	inc    %rcx
    65ff:	48 c7 c0 ff ff ff ff 	mov    $0xffffffffffffffff,%rax
    6606:	48 0f 45 c1          	cmovne %rcx,%rax
    660a:	48 85 c0             	test   %rax,%rax
    660d:	78 4f                	js     665e <__DescOffsetLookupFn+0x7fe>
    660f:	48 83 fb fe          	cmp    $0xfffffffffffffffe,%rbx
    6613:	48 c7 c0 fe ff ff ff 	mov    $0xfffffffffffffffe,%rax
    661a:	b9 01 00 00 00       	mov    $0x1,%ecx
    661f:	48 0f 42 c3          	cmovb  %rbx,%rax
    6623:	f3 48 0f bd c0       	lzcnt  %rax,%rax
    6628:	f6 d8                	neg    %al
    662a:	c4 e2 f9 f7 d1       	shlx   %rax,%rcx,%rdx
    662f:	eb 3c                	jmp    666d <__DescOffsetLookupFn+0x80d>
    6631:	41 c6 06 30          	movb   $0x30,(%r14)
    6635:	49 c7 47 08 01 00 00 	movq   $0x1,0x8(%r15)
    663c:	00 
    663d:	41 c6 46 01 00       	movb   $0x0,0x1(%r14)
    6642:	41 bc 01 00 00 00    	mov    $0x1,%r12d
    6648:	bd 20 00 00 00       	mov    $0x20,%ebp
    664d:	41 f6 c5 01          	test   $0x1,%r13b
    6651:	75 98                	jne    65eb <__DescOffsetLookupFn+0x78b>
    6653:	4c 89 e3             	mov    %r12,%rbx
    6656:	48 83 fb 02          	cmp    $0x2,%rbx
    665a:	73 45                	jae    66a1 <__DescOffsetLookupFn+0x841>
    665c:	eb 75                	jmp    66d3 <__DescOffsetLookupFn+0x873>
    665e:	48 83 f8 fe          	cmp    $0xfffffffffffffffe,%rax
    6662:	48 c7 c2 fe ff ff ff 	mov    $0xfffffffffffffffe,%rdx
    6669:	48 0f 42 d0          	cmovb  %rax,%rdx
    666d:	48 8b 7c 24 10       	mov    0x10(%rsp),%rdi
    6672:	49 89 57 10          	mov    %rdx,0x10(%r15)
    6676:	4c 89 f6             	mov    %r14,%rsi
    6679:	4c 89 e1             	mov    %r12,%rcx
    667c:	e8 cf 35 00 00       	call   9c50 <pony_realloc>
    6681:	49 89 c6             	mov    %rax,%r14
    6684:	49 89 47 18          	mov    %rax,0x18(%r15)
    6688:	49 89 5f 08          	mov    %rbx,0x8(%r15)
    668c:	43 c6 04 26 2d       	movb   $0x2d,(%r14,%r12,1)
    6691:	4d 8b 77 18          	mov    0x18(%r15),%r14
    6695:	43 c6 44 26 01 00    	movb   $0x0,0x1(%r14,%r12,1)
    669b:	48 83 fb 02          	cmp    $0x2,%rbx
    669f:	72 32                	jb     66d3 <__DescOffsetLookupFn+0x873>
    66a1:	48 ff cb             	dec    %rbx
    66a4:	b8 01 00 00 00       	mov    $0x1,%eax
    66a9:	0f 1f 80 00 00 00 00 	nopl   0x0(%rax)
    66b0:	41 0f b6 4c 06 ff    	movzbl -0x1(%r14,%rax,1),%ecx
    66b6:	41 0f b6 14 1e       	movzbl (%r14,%rbx,1),%edx
    66bb:	41 88 54 06 ff       	mov    %dl,-0x1(%r14,%rax,1)
    66c0:	41 88 0c 1e          	mov    %cl,(%r14,%rbx,1)
    66c4:	48 ff cb             	dec    %rbx
    66c7:	48 8d 48 01          	lea    0x1(%rax),%rcx
    66cb:	48 39 d8             	cmp    %rbx,%rax
    66ce:	48 89 c8             	mov    %rcx,%rax
    66d1:	72 dd                	jb     66b0 <__DescOffsetLookupFn+0x850>
    66d3:	4c 89 f8             	mov    %r15,%rax
    66d6:	48 83 c4 18          	add    $0x18,%rsp
    66da:	5b                   	pop    %rbx
    66db:	41 5c                	pop    %r12
    66dd:	41 5d                	pop    %r13
    66df:	41 5e                	pop    %r14
    66e1:	41 5f                	pop    %r15
    66e3:	5d                   	pop    %rbp
    66e4:	c3                   	ret
    66e5:	48 8b 44 24 08       	mov    0x8(%rsp),%rax
    66ea:	49 89 cc             	mov    %rcx,%r12
    66ed:	48 89 48 08          	mov    %rcx,0x8(%rax)
    66f1:	48 89 68 10          	mov    %rbp,0x10(%rax)
    66f5:	4c 89 70 18          	mov    %r14,0x18(%rax)
    66f9:	e8 c2 8d 00 00       	call   f4c0 <pony_error>
    66fe:	4c 8b 7c 24 08       	mov    0x8(%rsp),%r15
    6703:	44 8b 6c 24 04       	mov    0x4(%rsp),%r13d
    6708:	41 f6 c5 01          	test   $0x1,%r13b
    670c:	0f 85 d9 fe ff ff    	jne    65eb <__DescOffsetLookupFn+0x78b>
    6712:	e9 3c ff ff ff       	jmp    6653 <__DescOffsetLookupFn+0x7f3>
    6717:	66 0f 1f 84 00 00 00 	nopw   0x0(%rax,%rax,1)
    671e:	00 00 
    6720:	31 c0                	xor    %eax,%eax
    6722:	c3                   	ret
    6723:	66 66 66 66 2e 0f 1f 	data16 data16 data16 cs nopw 0x0(%rax,%rax,1)
    672a:	84 00 00 00 00 00 
    6730:	31 c0                	xor    %eax,%eax
    6732:	c3                   	ret
    6733:	66 66 66 66 2e 0f 1f 	data16 data16 data16 cs nopw 0x0(%rax,%rax,1)
    673a:	84 00 00 00 00 00 
    6740:	31 c0                	xor    %eax,%eax
    6742:	c3                   	ret
    6743:	66 66 66 66 2e 0f 1f 	data16 data16 data16 cs nopw 0x0(%rax,%rax,1)
    674a:	84 00 00 00 00 00 
    6750:	48 89 f8             	mov    %rdi,%rax
    6753:	c3                   	ret
    6754:	66 66 66 2e 0f 1f 84 	data16 data16 cs nopw 0x0(%rax,%rax,1)
    675b:	00 00 00 00 00 
    6760:	41 57                	push   %r15
    6762:	41 56                	push   %r14
    6764:	41 54                	push   %r12
    6766:	53                   	push   %rbx
    6767:	50                   	push   %rax
    6768:	48 89 f3             	mov    %rsi,%rbx
    676b:	49 89 fe             	mov    %rdi,%r14
    676e:	e8 1d c9 00 00       	call   13090 <pony_ctx>
    6773:	be 01 00 00 00       	mov    $0x1,%esi
    6778:	31 ff                	xor    %edi,%edi
    677a:	49 89 c7             	mov    %rax,%r15
    677d:	e8 2e 31 00 00       	call   98b0 <pony_alloc_msg>
    6782:	4c 89 ff             	mov    %r15,%rdi
    6785:	49 89 c4             	mov    %rax,%r12
    6788:	48 89 58 10          	mov    %rbx,0x10(%rax)
    678c:	e8 0f 8b 00 00       	call   f2a0 <pony_gc_send>
    6791:	ba 01 00 00 00       	mov    $0x1,%edx
    6796:	4c 89 ff             	mov    %r15,%rdi
    6799:	48 89 de             	mov    %rbx,%rsi
    679c:	e8 ef 8c 00 00       	call   f490 <pony_traceunknown>
    67a1:	4c 89 ff             	mov    %r15,%rdi
    67a4:	e8 97 8b 00 00       	call   f340 <pony_send_done>
    67a9:	41 b8 01 00 00 00    	mov    $0x1,%r8d
    67af:	4c 89 ff             	mov    %r15,%rdi
    67b2:	4c 89 f6             	mov    %r14,%rsi
    67b5:	4c 89 e2             	mov    %r12,%rdx
    67b8:	4c 89 e1             	mov    %r12,%rcx
    67bb:	e8 30 31 00 00       	call   98f0 <pony_sendv>
    67c0:	48 8d 05 f1 f3 01 00 	lea    0x1f3f1(%rip),%rax        # 25bb8 <cycle_type+0x1e58>
    67c7:	48 83 c4 08          	add    $0x8,%rsp
    67cb:	5b                   	pop    %rbx
    67cc:	41 5c                	pop    %r12
    67ce:	41 5e                	pop    %r14
    67d0:	41 5f                	pop    %r15
    67d2:	c3                   	ret
    67d3:	66 66 66 66 2e 0f 1f 	data16 data16 data16 cs nopw 0x0(%rax,%rax,1)
    67da:	84 00 00 00 00 00 
    67e0:	41 56                	push   %r14
    67e2:	53                   	push   %rbx
    67e3:	50                   	push   %rax
    67e4:	48 89 fb             	mov    %rdi,%rbx
    67e7:	e8 a4 c8 00 00       	call   13090 <pony_ctx>
    67ec:	49 89 c6             	mov    %rax,%r14
    67ef:	31 ff                	xor    %edi,%edi
    67f1:	31 f6                	xor    %esi,%esi
    67f3:	e8 b8 30 00 00       	call   98b0 <pony_alloc_msg>
    67f8:	41 b8 01 00 00 00    	mov    $0x1,%r8d
    67fe:	4c 89 f7             	mov    %r14,%rdi
    6801:	48 89 de             	mov    %rbx,%rsi
    6804:	48 89 c2             	mov    %rax,%rdx
    6807:	48 89 c1             	mov    %rax,%rcx
    680a:	e8 81 31 00 00       	call   9990 <pony_sendv_single>
    680f:	48 89 d8             	mov    %rbx,%rax
    6812:	48 83 c4 08          	add    $0x8,%rsp
    6816:	5b                   	pop    %rbx
    6817:	41 5e                	pop    %r14
    6819:	c3                   	ret
    681a:	66 0f 1f 44 00 00    	nopw   0x0(%rax,%rax,1)
    6820:	41 57                	push   %r15
    6822:	41 56                	push   %r14
    6824:	53                   	push   %rbx
    6825:	48 8b 06             	mov    (%rsi),%rax
    6828:	4c 8b b7 30 01 00 00 	mov    0x130(%rdi),%r14
    682f:	48 89 f3             	mov    %rsi,%rbx
    6832:	48 89 f7             	mov    %rsi,%rdi
    6835:	31 f6                	xor    %esi,%esi
    6837:	ff 90 90 00 00 00    	call   *0x90(%rax)
    683d:	49 89 c7             	mov    %rax,%r15
    6840:	48 8b 03             	mov    (%rbx),%rax
    6843:	48 89 df             	mov    %rbx,%rdi
    6846:	ff 90 f0 00 00 00    	call   *0xf0(%rax)
    684c:	4c 89 f7             	mov    %r14,%rdi
    684f:	4c 89 fe             	mov    %r15,%rsi
    6852:	48 89 c2             	mov    %rax,%rdx
    6855:	e8 56 91 00 00       	call   f9b0 <pony_os_std_print>
    685a:	48 8d 05 57 f3 01 00 	lea    0x1f357(%rip),%rax        # 25bb8 <cycle_type+0x1e58>
    6861:	5b                   	pop    %rbx
    6862:	41 5e                	pop    %r14
    6864:	41 5f                	pop    %r15
    6866:	c3                   	ret
    6867:	66 0f 1f 84 00 00 00 	nopw   0x0(%rax,%rax,1)
    686e:	00 00 
    6870:	41 56                	push   %r14
    6872:	53                   	push   %rbx
    6873:	50                   	push   %rax
    6874:	48 89 fb             	mov    %rdi,%rbx
    6877:	e8 14 c8 00 00       	call   13090 <pony_ctx>
    687c:	be 02 00 00 00       	mov    $0x2,%esi
    6881:	31 ff                	xor    %edi,%edi
    6883:	49 89 c6             	mov    %rax,%r14
    6886:	e8 25 30 00 00       	call   98b0 <pony_alloc_msg>
    688b:	41 b8 01 00 00 00    	mov    $0x1,%r8d
    6891:	4c 89 f7             	mov    %r14,%rdi
    6894:	48 89 de             	mov    %rbx,%rsi
    6897:	48 89 c2             	mov    %rax,%rdx
    689a:	48 89 c1             	mov    %rax,%rcx
    689d:	e8 ee 30 00 00       	call   9990 <pony_sendv_single>
    68a2:	48 89 d8             	mov    %rbx,%rax
    68a5:	48 83 c4 08          	add    $0x8,%rsp
    68a9:	5b                   	pop    %rbx
    68aa:	41 5e                	pop    %r14
    68ac:	c3                   	ret
    68ad:	0f 1f 00             	nopl   (%rax)
    68b0:	41 57                	push   %r15
    68b2:	41 56                	push   %r14
    68b4:	41 54                	push   %r12
    68b6:	53                   	push   %rbx
    68b7:	50                   	push   %rax
    68b8:	49 89 f6             	mov    %rsi,%r14
    68bb:	48 89 fb             	mov    %rdi,%rbx
    68be:	e8 cd c7 00 00       	call   13090 <pony_ctx>
    68c3:	be 01 00 00 00       	mov    $0x1,%esi
    68c8:	31 ff                	xor    %edi,%edi
    68ca:	49 89 c7             	mov    %rax,%r15
    68cd:	e8 de 2f 00 00       	call   98b0 <pony_alloc_msg>
    68d2:	4c 89 ff             	mov    %r15,%rdi
    68d5:	49 89 c4             	mov    %rax,%r12
    68d8:	4c 89 70 10          	mov    %r14,0x10(%rax)
    68dc:	e8 bf 89 00 00       	call   f2a0 <pony_gc_send>
    68e1:	48 8d 15 18 ea 01 00 	lea    0x1ea18(%rip),%rdx        # 25300 <cycle_type+0x15a0>
    68e8:	b9 01 00 00 00       	mov    $0x1,%ecx
    68ed:	4c 89 ff             	mov    %r15,%rdi
    68f0:	4c 89 f6             	mov    %r14,%rsi
    68f3:	e8 78 8b 00 00       	call   f470 <pony_traceknown>
    68f8:	4c 89 ff             	mov    %r15,%rdi
    68fb:	e8 40 8a 00 00       	call   f340 <pony_send_done>
    6900:	41 b8 01 00 00 00    	mov    $0x1,%r8d
    6906:	4c 89 ff             	mov    %r15,%rdi
    6909:	48 89 de             	mov    %rbx,%rsi
    690c:	4c 89 e2             	mov    %r12,%rdx
    690f:	4c 89 e1             	mov    %r12,%rcx
    6912:	e8 79 30 00 00       	call   9990 <pony_sendv_single>
    6917:	48 89 d8             	mov    %rbx,%rax
    691a:	48 83 c4 08          	add    $0x8,%rsp
    691e:	5b                   	pop    %rbx
    691f:	41 5c                	pop    %r12
    6921:	41 5e                	pop    %r14
    6923:	41 5f                	pop    %r15
    6925:	c3                   	ret
    6926:	66 2e 0f 1f 84 00 00 	cs nopw 0x0(%rax,%rax,1)
    692d:	00 00 00 

0000000000006930 <Main_runtime_override_defaults_oo>:
    6930:	c3                   	ret
    6931:	66 66 66 66 66 66 2e 	data16 data16 data16 data16 data16 cs nopw 0x0(%rax,%rax,1)
    6938:	0f 1f 84 00 00 00 00 
    693f:	00 
    6940:	50                   	push   %rax
    6941:	48 03 4f 18          	add    0x18(%rdi),%rcx
    6945:	4a 8d 04 06          	lea    (%rsi,%r8,1),%rax
    6949:	48 89 c7             	mov    %rax,%rdi
    694c:	48 89 ce             	mov    %rcx,%rsi
    694f:	e8 7c ec ff ff       	call   55d0 <memcpy@plt>
    6954:	48 8d 05 5d f2 01 00 	lea    0x1f25d(%rip),%rax        # 25bb8 <cycle_type+0x1e58>
    695b:	59                   	pop    %rcx
    695c:	c3                   	ret
    695d:	0f 1f 00             	nopl   (%rax)
    6960:	50                   	push   %rax
    6961:	48 03 4f 18          	add    0x18(%rdi),%rcx
    6965:	4a 8d 04 06          	lea    (%rsi,%r8,1),%rax
    6969:	48 89 c7             	mov    %rax,%rdi
    696c:	48 89 ce             	mov    %rcx,%rsi
    696f:	e8 5c ec ff ff       	call   55d0 <memcpy@plt>
    6974:	48 8d 05 3d f2 01 00 	lea    0x1f23d(%rip),%rax        # 25bb8 <cycle_type+0x1e58>
    697b:	59                   	pop    %rcx
    697c:	c3                   	ret
    697d:	0f 1f 00             	nopl   (%rax)
    6980:	50                   	push   %rax
    6981:	48 03 4f 18          	add    0x18(%rdi),%rcx
    6985:	4a 8d 04 06          	lea    (%rsi,%r8,1),%rax
    6989:	48 89 c7             	mov    %rax,%rdi
    698c:	48 89 ce             	mov    %rcx,%rsi
    698f:	e8 3c ec ff ff       	call   55d0 <memcpy@plt>
    6994:	48 8d 05 1d f2 01 00 	lea    0x1f21d(%rip),%rax        # 25bb8 <cycle_type+0x1e58>
    699b:	59                   	pop    %rcx
    699c:	c3                   	ret
    699d:	0f 1f 00             	nopl   (%rax)
    69a0:	55                   	push   %rbp
    69a1:	41 57                	push   %r15
    69a3:	41 56                	push   %r14
    69a5:	41 55                	push   %r13
    69a7:	41 54                	push   %r12
    69a9:	53                   	push   %rbx
    69aa:	48 83 ec 18          	sub    $0x18,%rsp
    69ae:	48 89 f3             	mov    %rsi,%rbx
    69b1:	49 89 fd             	mov    %rdi,%r13
    69b4:	e8 d7 c6 00 00       	call   13090 <pony_ctx>
    69b9:	48 8b 6b 08          	mov    0x8(%rbx),%rbp
    69bd:	49 89 c7             	mov    %rax,%r15
    69c0:	48 89 5c 24 08       	mov    %rbx,0x8(%rsp)
    69c5:	48 89 c7             	mov    %rax,%rdi
    69c8:	31 f6                	xor    %esi,%esi
    69ca:	49 03 6d 08          	add    0x8(%r13),%rbp
    69ce:	e8 3d 32 00 00       	call   9c10 <pony_alloc_small>
    69d3:	48 ff c5             	inc    %rbp
    69d6:	49 c7 c6 ff ff ff ff 	mov    $0xffffffffffffffff,%r14
    69dd:	48 89 c3             	mov    %rax,%rbx
    69e0:	48 8d 05 09 db 01 00 	lea    0x1db09(%rip),%rax        # 244f0 <cycle_type+0x790>
    69e7:	4c 89 7c 24 10       	mov    %r15,0x10(%rsp)
    69ec:	4c 89 ff             	mov    %r15,%rdi
    69ef:	49 0f 44 ee          	cmove  %r14,%rbp
    69f3:	48 89 03             	mov    %rax,(%rbx)
    69f6:	48 c7 43 08 00 00 00 	movq   $0x0,0x8(%rbx)
    69fd:	00 
    69fe:	48 89 ee             	mov    %rbp,%rsi
    6a01:	48 89 6b 10          	mov    %rbp,0x10(%rbx)
    6a05:	e8 e6 31 00 00       	call   9bf0 <pony_alloc>
    6a0a:	48 89 43 18          	mov    %rax,0x18(%rbx)
    6a0e:	c6 00 00             	movb   $0x0,(%rax)
    6a11:	49 89 c4             	mov    %rax,%r12
    6a14:	4d 8b 7d 08          	mov    0x8(%r13),%r15
    6a18:	4c 39 fd             	cmp    %r15,%rbp
    6a1b:	76 1a                	jbe    6a37 <Main_runtime_override_defaults_oo+0x107>
    6a1d:	4c 8b 74 24 08       	mov    0x8(%rsp),%r14
    6a22:	4c 89 fa             	mov    %r15,%rdx
    6a25:	49 8b 45 10          	mov    0x10(%r13),%rax
    6a29:	49 8b 75 18          	mov    0x18(%r13),%rsi
    6a2d:	48 85 c0             	test   %rax,%rax
    6a30:	75 78                	jne    6aaa <Main_runtime_override_defaults_oo+0x17a>
    6a32:	e9 81 00 00 00       	jmp    6ab8 <Main_runtime_override_defaults_oo+0x188>
    6a37:	4c 89 f8             	mov    %r15,%rax
    6a3a:	48 ff c0             	inc    %rax
    6a3d:	49 0f 44 c6          	cmove  %r14,%rax
    6a41:	48 85 c0             	test   %rax,%rax
    6a44:	78 22                	js     6a68 <Main_runtime_override_defaults_oo+0x138>
    6a46:	49 83 ff fe          	cmp    $0xfffffffffffffffe,%r15
    6a4a:	48 c7 c0 fe ff ff ff 	mov    $0xfffffffffffffffe,%rax
    6a51:	b9 01 00 00 00       	mov    $0x1,%ecx
    6a56:	49 0f 42 c7          	cmovb  %r15,%rax
    6a5a:	f3 48 0f bd c0       	lzcnt  %rax,%rax
    6a5f:	f6 d8                	neg    %al
    6a61:	c4 e2 f9 f7 e9       	shlx   %rax,%rcx,%rbp
    6a66:	eb 0f                	jmp    6a77 <Main_runtime_override_defaults_oo+0x147>
    6a68:	48 83 f8 fe          	cmp    $0xfffffffffffffffe,%rax
    6a6c:	48 c7 c5 fe ff ff ff 	mov    $0xfffffffffffffffe,%rbp
    6a73:	48 0f 42 e8          	cmovb  %rax,%rbp
    6a77:	48 8b 7c 24 10       	mov    0x10(%rsp),%rdi
    6a7c:	4c 8b 74 24 08       	mov    0x8(%rsp),%r14
    6a81:	48 89 6b 10          	mov    %rbp,0x10(%rbx)
    6a85:	4c 89 e6             	mov    %r12,%rsi
    6a88:	48 89 ea             	mov    %rbp,%rdx
    6a8b:	31 c9                	xor    %ecx,%ecx
    6a8d:	e8 be 31 00 00       	call   9c50 <pony_realloc>
    6a92:	48 89 43 18          	mov    %rax,0x18(%rbx)
    6a96:	49 89 c4             	mov    %rax,%r12
    6a99:	49 8b 55 08          	mov    0x8(%r13),%rdx
    6a9d:	49 8b 45 10          	mov    0x10(%r13),%rax
    6aa1:	49 8b 75 18          	mov    0x18(%r13),%rsi
    6aa5:	48 85 c0             	test   %rax,%rax
    6aa8:	74 0e                	je     6ab8 <Main_runtime_override_defaults_oo+0x188>
    6aaa:	48 39 d0             	cmp    %rdx,%rax
    6aad:	74 09                	je     6ab8 <Main_runtime_override_defaults_oo+0x188>
    6aaf:	80 3c 16 00          	cmpb   $0x0,(%rsi,%rdx,1)
    6ab3:	75 03                	jne    6ab8 <Main_runtime_override_defaults_oo+0x188>
    6ab5:	48 ff c2             	inc    %rdx
    6ab8:	4c 89 e7             	mov    %r12,%rdi
    6abb:	e8 10 eb ff ff       	call   55d0 <memcpy@plt>
    6ac0:	49 8b 56 08          	mov    0x8(%r14),%rdx
    6ac4:	4e 8d 2c 3a          	lea    (%rdx,%r15,1),%r13
    6ac8:	4c 39 ed             	cmp    %r13,%rbp
    6acb:	77 66                	ja     6b33 <Main_runtime_override_defaults_oo+0x203>
    6acd:	4c 89 e9             	mov    %r13,%rcx
    6ad0:	48 ff c1             	inc    %rcx
    6ad3:	48 c7 c0 ff ff ff ff 	mov    $0xffffffffffffffff,%rax
    6ada:	48 0f 45 c1          	cmovne %rcx,%rax
    6ade:	48 85 c0             	test   %rax,%rax
    6ae1:	78 22                	js     6b05 <Main_runtime_override_defaults_oo+0x1d5>
    6ae3:	49 83 fd fe          	cmp    $0xfffffffffffffffe,%r13
    6ae7:	48 c7 c0 fe ff ff ff 	mov    $0xfffffffffffffffe,%rax
    6aee:	b9 01 00 00 00       	mov    $0x1,%ecx
    6af3:	49 0f 42 c5          	cmovb  %r13,%rax
    6af7:	f3 48 0f bd c0       	lzcnt  %rax,%rax
    6afc:	f6 d8                	neg    %al
    6afe:	c4 e2 f9 f7 d1       	shlx   %rax,%rcx,%rdx
    6b03:	eb 0f                	jmp    6b14 <Main_runtime_override_defaults_oo+0x1e4>
    6b05:	48 83 f8 fe          	cmp    $0xfffffffffffffffe,%rax
    6b09:	48 c7 c2 fe ff ff ff 	mov    $0xfffffffffffffffe,%rdx
    6b10:	48 0f 42 d0          	cmovb  %rax,%rdx
    6b14:	48 8b 7c 24 10       	mov    0x10(%rsp),%rdi
    6b19:	48 89 53 10          	mov    %rdx,0x10(%rbx)
    6b1d:	4c 89 e6             	mov    %r12,%rsi
    6b20:	4c 89 f9             	mov    %r15,%rcx
    6b23:	e8 28 31 00 00       	call   9c50 <pony_realloc>
    6b28:	48 89 43 18          	mov    %rax,0x18(%rbx)
    6b2c:	49 89 c4             	mov    %rax,%r12
    6b2f:	49 8b 56 08          	mov    0x8(%r14),%rdx
    6b33:	49 8b 46 10          	mov    0x10(%r14),%rax
    6b37:	49 8b 76 18          	mov    0x18(%r14),%rsi
    6b3b:	48 85 c0             	test   %rax,%rax
    6b3e:	74 0e                	je     6b4e <Main_runtime_override_defaults_oo+0x21e>
    6b40:	48 39 d0             	cmp    %rdx,%rax
    6b43:	74 09                	je     6b4e <Main_runtime_override_defaults_oo+0x21e>
    6b45:	80 3c 16 00          	cmpb   $0x0,(%rsi,%rdx,1)
    6b49:	75 03                	jne    6b4e <Main_runtime_override_defaults_oo+0x21e>
    6b4b:	48 ff c2             	inc    %rdx
    6b4e:	4d 01 fc             	add    %r15,%r12
    6b51:	4c 89 e7             	mov    %r12,%rdi
    6b54:	e8 77 ea ff ff       	call   55d0 <memcpy@plt>
    6b59:	4c 89 6b 08          	mov    %r13,0x8(%rbx)
    6b5d:	48 89 d8             	mov    %rbx,%rax
    6b60:	48 83 c4 18          	add    $0x18,%rsp
    6b64:	5b                   	pop    %rbx
    6b65:	41 5c                	pop    %r12
    6b67:	41 5d                	pop    %r13
    6b69:	41 5e                	pop    %r14
    6b6b:	41 5f                	pop    %r15
    6b6d:	5d                   	pop    %rbp
    6b6e:	c3                   	ret
    6b6f:	90                   	nop
    6b70:	55                   	push   %rbp
    6b71:	41 57                	push   %r15
    6b73:	41 56                	push   %r14
    6b75:	41 55                	push   %r13
    6b77:	41 54                	push   %r12
    6b79:	53                   	push   %rbx
    6b7a:	48 83 ec 18          	sub    $0x18,%rsp
    6b7e:	48 89 f3             	mov    %rsi,%rbx
    6b81:	49 89 fd             	mov    %rdi,%r13
    6b84:	e8 07 c5 00 00       	call   13090 <pony_ctx>
    6b89:	48 8b 6b 08          	mov    0x8(%rbx),%rbp
    6b8d:	49 89 c7             	mov    %rax,%r15
    6b90:	48 89 5c 24 08       	mov    %rbx,0x8(%rsp)
    6b95:	48 89 c7             	mov    %rax,%rdi
    6b98:	31 f6                	xor    %esi,%esi
    6b9a:	49 03 6d 08          	add    0x8(%r13),%rbp
    6b9e:	e8 6d 30 00 00       	call   9c10 <pony_alloc_small>
    6ba3:	48 ff c5             	inc    %rbp
    6ba6:	49 c7 c6 ff ff ff ff 	mov    $0xffffffffffffffff,%r14
    6bad:	48 89 c3             	mov    %rax,%rbx
    6bb0:	48 8d 05 39 d9 01 00 	lea    0x1d939(%rip),%rax        # 244f0 <cycle_type+0x790>
    6bb7:	4c 89 7c 24 10       	mov    %r15,0x10(%rsp)
    6bbc:	4c 89 ff             	mov    %r15,%rdi
    6bbf:	49 0f 44 ee          	cmove  %r14,%rbp
    6bc3:	48 89 03             	mov    %rax,(%rbx)
    6bc6:	48 c7 43 08 00 00 00 	movq   $0x0,0x8(%rbx)
    6bcd:	00 
    6bce:	48 89 ee             	mov    %rbp,%rsi
    6bd1:	48 89 6b 10          	mov    %rbp,0x10(%rbx)
    6bd5:	e8 16 30 00 00       	call   9bf0 <pony_alloc>
    6bda:	48 89 43 18          	mov    %rax,0x18(%rbx)
    6bde:	c6 00 00             	movb   $0x0,(%rax)
    6be1:	49 89 c4             	mov    %rax,%r12
    6be4:	4d 8b 7d 08          	mov    0x8(%r13),%r15
    6be8:	4c 39 fd             	cmp    %r15,%rbp
    6beb:	76 1a                	jbe    6c07 <Main_runtime_override_defaults_oo+0x2d7>
    6bed:	4c 8b 74 24 08       	mov    0x8(%rsp),%r14
    6bf2:	4c 89 fa             	mov    %r15,%rdx
    6bf5:	49 8b 45 10          	mov    0x10(%r13),%rax
    6bf9:	49 8b 75 18          	mov    0x18(%r13),%rsi
    6bfd:	48 85 c0             	test   %rax,%rax
    6c00:	75 78                	jne    6c7a <Main_runtime_override_defaults_oo+0x34a>
    6c02:	e9 81 00 00 00       	jmp    6c88 <Main_runtime_override_defaults_oo+0x358>
    6c07:	4c 89 f8             	mov    %r15,%rax
    6c0a:	48 ff c0             	inc    %rax
    6c0d:	49 0f 44 c6          	cmove  %r14,%rax
    6c11:	48 85 c0             	test   %rax,%rax
    6c14:	78 22                	js     6c38 <Main_runtime_override_defaults_oo+0x308>
    6c16:	49 83 ff fe          	cmp    $0xfffffffffffffffe,%r15
    6c1a:	48 c7 c0 fe ff ff ff 	mov    $0xfffffffffffffffe,%rax
    6c21:	b9 01 00 00 00       	mov    $0x1,%ecx
    6c26:	49 0f 42 c7          	cmovb  %r15,%rax
    6c2a:	f3 48 0f bd c0       	lzcnt  %rax,%rax
    6c2f:	f6 d8                	neg    %al
    6c31:	c4 e2 f9 f7 e9       	shlx   %rax,%rcx,%rbp
    6c36:	eb 0f                	jmp    6c47 <Main_runtime_override_defaults_oo+0x317>
    6c38:	48 83 f8 fe          	cmp    $0xfffffffffffffffe,%rax
    6c3c:	48 c7 c5 fe ff ff ff 	mov    $0xfffffffffffffffe,%rbp
    6c43:	48 0f 42 e8          	cmovb  %rax,%rbp
    6c47:	48 8b 7c 24 10       	mov    0x10(%rsp),%rdi
    6c4c:	4c 8b 74 24 08       	mov    0x8(%rsp),%r14
    6c51:	48 89 6b 10          	mov    %rbp,0x10(%rbx)
    6c55:	4c 89 e6             	mov    %r12,%rsi
    6c58:	48 89 ea             	mov    %rbp,%rdx
    6c5b:	31 c9                	xor    %ecx,%ecx
    6c5d:	e8 ee 2f 00 00       	call   9c50 <pony_realloc>
    6c62:	48 89 43 18          	mov    %rax,0x18(%rbx)
    6c66:	49 89 c4             	mov    %rax,%r12
    6c69:	49 8b 55 08          	mov    0x8(%r13),%rdx
    6c6d:	49 8b 45 10          	mov    0x10(%r13),%rax
    6c71:	49 8b 75 18          	mov    0x18(%r13),%rsi
    6c75:	48 85 c0             	test   %rax,%rax
    6c78:	74 0e                	je     6c88 <Main_runtime_override_defaults_oo+0x358>
    6c7a:	48 39 d0             	cmp    %rdx,%rax
    6c7d:	74 09                	je     6c88 <Main_runtime_override_defaults_oo+0x358>
    6c7f:	80 3c 16 00          	cmpb   $0x0,(%rsi,%rdx,1)
    6c83:	75 03                	jne    6c88 <Main_runtime_override_defaults_oo+0x358>
    6c85:	48 ff c2             	inc    %rdx
    6c88:	4c 89 e7             	mov    %r12,%rdi
    6c8b:	e8 40 e9 ff ff       	call   55d0 <memcpy@plt>
    6c90:	49 8b 56 08          	mov    0x8(%r14),%rdx
    6c94:	4e 8d 2c 3a          	lea    (%rdx,%r15,1),%r13
    6c98:	4c 39 ed             	cmp    %r13,%rbp
    6c9b:	77 66                	ja     6d03 <Main_runtime_override_defaults_oo+0x3d3>
    6c9d:	4c 89 e9             	mov    %r13,%rcx
    6ca0:	48 ff c1             	inc    %rcx
    6ca3:	48 c7 c0 ff ff ff ff 	mov    $0xffffffffffffffff,%rax
    6caa:	48 0f 45 c1          	cmovne %rcx,%rax
    6cae:	48 85 c0             	test   %rax,%rax
    6cb1:	78 22                	js     6cd5 <Main_runtime_override_defaults_oo+0x3a5>
    6cb3:	49 83 fd fe          	cmp    $0xfffffffffffffffe,%r13
    6cb7:	48 c7 c0 fe ff ff ff 	mov    $0xfffffffffffffffe,%rax
    6cbe:	b9 01 00 00 00       	mov    $0x1,%ecx
    6cc3:	49 0f 42 c5          	cmovb  %r13,%rax
    6cc7:	f3 48 0f bd c0       	lzcnt  %rax,%rax
    6ccc:	f6 d8                	neg    %al
    6cce:	c4 e2 f9 f7 d1       	shlx   %rax,%rcx,%rdx
    6cd3:	eb 0f                	jmp    6ce4 <Main_runtime_override_defaults_oo+0x3b4>
    6cd5:	48 83 f8 fe          	cmp    $0xfffffffffffffffe,%rax
    6cd9:	48 c7 c2 fe ff ff ff 	mov    $0xfffffffffffffffe,%rdx
    6ce0:	48 0f 42 d0          	cmovb  %rax,%rdx
    6ce4:	48 8b 7c 24 10       	mov    0x10(%rsp),%rdi
    6ce9:	48 89 53 10          	mov    %rdx,0x10(%rbx)
    6ced:	4c 89 e6             	mov    %r12,%rsi
    6cf0:	4c 89 f9             	mov    %r15,%rcx
    6cf3:	e8 58 2f 00 00       	call   9c50 <pony_realloc>
    6cf8:	48 89 43 18          	mov    %rax,0x18(%rbx)
    6cfc:	49 89 c4             	mov    %rax,%r12
    6cff:	49 8b 56 08          	mov    0x8(%r14),%rdx
    6d03:	49 8b 46 10          	mov    0x10(%r14),%rax
    6d07:	49 8b 76 18          	mov    0x18(%r14),%rsi
    6d0b:	48 85 c0             	test   %rax,%rax
    6d0e:	74 0e                	je     6d1e <Main_runtime_override_defaults_oo+0x3ee>
    6d10:	48 39 d0             	cmp    %rdx,%rax
    6d13:	74 09                	je     6d1e <Main_runtime_override_defaults_oo+0x3ee>
    6d15:	80 3c 16 00          	cmpb   $0x0,(%rsi,%rdx,1)
    6d19:	75 03                	jne    6d1e <Main_runtime_override_defaults_oo+0x3ee>
    6d1b:	48 ff c2             	inc    %rdx
    6d1e:	4d 01 fc             	add    %r15,%r12
    6d21:	4c 89 e7             	mov    %r12,%rdi
    6d24:	e8 a7 e8 ff ff       	call   55d0 <memcpy@plt>
    6d29:	4c 89 6b 08          	mov    %r13,0x8(%rbx)
    6d2d:	48 89 d8             	mov    %rbx,%rax
    6d30:	48 83 c4 18          	add    $0x18,%rsp
    6d34:	5b                   	pop    %rbx
    6d35:	41 5c                	pop    %r12
    6d37:	41 5d                	pop    %r13
    6d39:	41 5e                	pop    %r14
    6d3b:	41 5f                	pop    %r15
    6d3d:	5d                   	pop    %rbp
    6d3e:	c3                   	ret
    6d3f:	90                   	nop
    6d40:	55                   	push   %rbp
    6d41:	41 57                	push   %r15
    6d43:	41 56                	push   %r14
    6d45:	41 55                	push   %r13
    6d47:	41 54                	push   %r12
    6d49:	53                   	push   %rbx
    6d4a:	48 83 ec 18          	sub    $0x18,%rsp
    6d4e:	48 89 f3             	mov    %rsi,%rbx
    6d51:	49 89 fd             	mov    %rdi,%r13
    6d54:	e8 37 c3 00 00       	call   13090 <pony_ctx>
    6d59:	48 8b 6b 08          	mov    0x8(%rbx),%rbp
    6d5d:	49 89 c7             	mov    %rax,%r15
    6d60:	48 89 5c 24 08       	mov    %rbx,0x8(%rsp)
    6d65:	48 89 c7             	mov    %rax,%rdi
    6d68:	31 f6                	xor    %esi,%esi
    6d6a:	49 03 6d 08          	add    0x8(%r13),%rbp
    6d6e:	e8 9d 2e 00 00       	call   9c10 <pony_alloc_small>
    6d73:	48 ff c5             	inc    %rbp
    6d76:	49 c7 c6 ff ff ff ff 	mov    $0xffffffffffffffff,%r14
    6d7d:	48 89 c3             	mov    %rax,%rbx
    6d80:	48 8d 05 69 d7 01 00 	lea    0x1d769(%rip),%rax        # 244f0 <cycle_type+0x790>
    6d87:	4c 89 7c 24 10       	mov    %r15,0x10(%rsp)
    6d8c:	4c 89 ff             	mov    %r15,%rdi
    6d8f:	49 0f 44 ee          	cmove  %r14,%rbp
    6d93:	48 89 03             	mov    %rax,(%rbx)
    6d96:	48 c7 43 08 00 00 00 	movq   $0x0,0x8(%rbx)
    6d9d:	00 
    6d9e:	48 89 ee             	mov    %rbp,%rsi
    6da1:	48 89 6b 10          	mov    %rbp,0x10(%rbx)
    6da5:	e8 46 2e 00 00       	call   9bf0 <pony_alloc>
    6daa:	48 89 43 18          	mov    %rax,0x18(%rbx)
    6dae:	c6 00 00             	movb   $0x0,(%rax)
    6db1:	49 89 c4             	mov    %rax,%r12
    6db4:	4d 8b 7d 08          	mov    0x8(%r13),%r15
    6db8:	4c 39 fd             	cmp    %r15,%rbp
    6dbb:	76 1a                	jbe    6dd7 <Main_runtime_override_defaults_oo+0x4a7>
    6dbd:	4c 8b 74 24 08       	mov    0x8(%rsp),%r14
    6dc2:	4c 89 fa             	mov    %r15,%rdx
    6dc5:	49 8b 45 10          	mov    0x10(%r13),%rax
    6dc9:	49 8b 75 18          	mov    0x18(%r13),%rsi
    6dcd:	48 85 c0             	test   %rax,%rax
    6dd0:	75 78                	jne    6e4a <Main_runtime_override_defaults_oo+0x51a>
    6dd2:	e9 81 00 00 00       	jmp    6e58 <Main_runtime_override_defaults_oo+0x528>
    6dd7:	4c 89 f8             	mov    %r15,%rax
    6dda:	48 ff c0             	inc    %rax
    6ddd:	49 0f 44 c6          	cmove  %r14,%rax
    6de1:	48 85 c0             	test   %rax,%rax
    6de4:	78 22                	js     6e08 <Main_runtime_override_defaults_oo+0x4d8>
    6de6:	49 83 ff fe          	cmp    $0xfffffffffffffffe,%r15
    6dea:	48 c7 c0 fe ff ff ff 	mov    $0xfffffffffffffffe,%rax
    6df1:	b9 01 00 00 00       	mov    $0x1,%ecx
    6df6:	49 0f 42 c7          	cmovb  %r15,%rax
    6dfa:	f3 48 0f bd c0       	lzcnt  %rax,%rax
    6dff:	f6 d8                	neg    %al
    6e01:	c4 e2 f9 f7 e9       	shlx   %rax,%rcx,%rbp
    6e06:	eb 0f                	jmp    6e17 <Main_runtime_override_defaults_oo+0x4e7>
    6e08:	48 83 f8 fe          	cmp    $0xfffffffffffffffe,%rax
    6e0c:	48 c7 c5 fe ff ff ff 	mov    $0xfffffffffffffffe,%rbp
    6e13:	48 0f 42 e8          	cmovb  %rax,%rbp
    6e17:	48 8b 7c 24 10       	mov    0x10(%rsp),%rdi
    6e1c:	4c 8b 74 24 08       	mov    0x8(%rsp),%r14
    6e21:	48 89 6b 10          	mov    %rbp,0x10(%rbx)
    6e25:	4c 89 e6             	mov    %r12,%rsi
    6e28:	48 89 ea             	mov    %rbp,%rdx
    6e2b:	31 c9                	xor    %ecx,%ecx
    6e2d:	e8 1e 2e 00 00       	call   9c50 <pony_realloc>
    6e32:	48 89 43 18          	mov    %rax,0x18(%rbx)
    6e36:	49 89 c4             	mov    %rax,%r12
    6e39:	49 8b 55 08          	mov    0x8(%r13),%rdx
    6e3d:	49 8b 45 10          	mov    0x10(%r13),%rax
    6e41:	49 8b 75 18          	mov    0x18(%r13),%rsi
    6e45:	48 85 c0             	test   %rax,%rax
    6e48:	74 0e                	je     6e58 <Main_runtime_override_defaults_oo+0x528>
    6e4a:	48 39 d0             	cmp    %rdx,%rax
    6e4d:	74 09                	je     6e58 <Main_runtime_override_defaults_oo+0x528>
    6e4f:	80 3c 16 00          	cmpb   $0x0,(%rsi,%rdx,1)
    6e53:	75 03                	jne    6e58 <Main_runtime_override_defaults_oo+0x528>
    6e55:	48 ff c2             	inc    %rdx
    6e58:	4c 89 e7             	mov    %r12,%rdi
    6e5b:	e8 70 e7 ff ff       	call   55d0 <memcpy@plt>
    6e60:	49 8b 56 08          	mov    0x8(%r14),%rdx
    6e64:	4e 8d 2c 3a          	lea    (%rdx,%r15,1),%r13
    6e68:	4c 39 ed             	cmp    %r13,%rbp
    6e6b:	77 66                	ja     6ed3 <Main_runtime_override_defaults_oo+0x5a3>
    6e6d:	4c 89 e9             	mov    %r13,%rcx
    6e70:	48 ff c1             	inc    %rcx
    6e73:	48 c7 c0 ff ff ff ff 	mov    $0xffffffffffffffff,%rax
    6e7a:	48 0f 45 c1          	cmovne %rcx,%rax
    6e7e:	48 85 c0             	test   %rax,%rax
    6e81:	78 22                	js     6ea5 <Main_runtime_override_defaults_oo+0x575>
    6e83:	49 83 fd fe          	cmp    $0xfffffffffffffffe,%r13
    6e87:	48 c7 c0 fe ff ff ff 	mov    $0xfffffffffffffffe,%rax
    6e8e:	b9 01 00 00 00       	mov    $0x1,%ecx
    6e93:	49 0f 42 c5          	cmovb  %r13,%rax
    6e97:	f3 48 0f bd c0       	lzcnt  %rax,%rax
    6e9c:	f6 d8                	neg    %al
    6e9e:	c4 e2 f9 f7 d1       	shlx   %rax,%rcx,%rdx
    6ea3:	eb 0f                	jmp    6eb4 <Main_runtime_override_defaults_oo+0x584>
    6ea5:	48 83 f8 fe          	cmp    $0xfffffffffffffffe,%rax
    6ea9:	48 c7 c2 fe ff ff ff 	mov    $0xfffffffffffffffe,%rdx
    6eb0:	48 0f 42 d0          	cmovb  %rax,%rdx
    6eb4:	48 8b 7c 24 10       	mov    0x10(%rsp),%rdi
    6eb9:	48 89 53 10          	mov    %rdx,0x10(%rbx)
    6ebd:	4c 89 e6             	mov    %r12,%rsi
    6ec0:	4c 89 f9             	mov    %r15,%rcx
    6ec3:	e8 88 2d 00 00       	call   9c50 <pony_realloc>
    6ec8:	48 89 43 18          	mov    %rax,0x18(%rbx)
    6ecc:	49 89 c4             	mov    %rax,%r12
    6ecf:	49 8b 56 08          	mov    0x8(%r14),%rdx
    6ed3:	49 8b 46 10          	mov    0x10(%r14),%rax
    6ed7:	49 8b 76 18          	mov    0x18(%r14),%rsi
    6edb:	48 85 c0             	test   %rax,%rax
    6ede:	74 0e                	je     6eee <Main_runtime_override_defaults_oo+0x5be>
    6ee0:	48 39 d0             	cmp    %rdx,%rax
    6ee3:	74 09                	je     6eee <Main_runtime_override_defaults_oo+0x5be>
    6ee5:	80 3c 16 00          	cmpb   $0x0,(%rsi,%rdx,1)
    6ee9:	75 03                	jne    6eee <Main_runtime_override_defaults_oo+0x5be>
    6eeb:	48 ff c2             	inc    %rdx
    6eee:	4d 01 fc             	add    %r15,%r12
    6ef1:	4c 89 e7             	mov    %r12,%rdi
    6ef4:	e8 d7 e6 ff ff       	call   55d0 <memcpy@plt>
    6ef9:	4c 89 6b 08          	mov    %r13,0x8(%rbx)
    6efd:	48 89 d8             	mov    %rbx,%rax
    6f00:	48 83 c4 18          	add    $0x18,%rsp
    6f04:	5b                   	pop    %rbx
    6f05:	41 5c                	pop    %r12
    6f07:	41 5d                	pop    %r13
    6f09:	41 5e                	pop    %r14
    6f0b:	41 5f                	pop    %r15
    6f0d:	5d                   	pop    %rbp
    6f0e:	c3                   	ret
    6f0f:	90                   	nop
    6f10:	48 8b 47 08          	mov    0x8(%rdi),%rax
    6f14:	c3                   	ret
    6f15:	66 66 2e 0f 1f 84 00 	data16 cs nopw 0x0(%rax,%rax,1)
    6f1c:	00 00 00 00 
    6f20:	48 8b 47 08          	mov    0x8(%rdi),%rax
    6f24:	c3                   	ret
    6f25:	66 66 2e 0f 1f 84 00 	data16 cs nopw 0x0(%rax,%rax,1)
    6f2c:	00 00 00 00 
    6f30:	48 8b 47 08          	mov    0x8(%rdi),%rax
    6f34:	c3                   	ret
    6f35:	66 66 2e 0f 1f 84 00 	data16 cs nopw 0x0(%rax,%rax,1)
    6f3c:	00 00 00 00 
    6f40:	48 8b 47 10          	mov    0x10(%rdi),%rax
    6f44:	48 85 c0             	test   %rax,%rax
    6f47:	74 09                	je     6f52 <Main_runtime_override_defaults_oo+0x622>
    6f49:	48 8b 4f 08          	mov    0x8(%rdi),%rcx
    6f4d:	48 39 c8             	cmp    %rcx,%rax
    6f50:	75 03                	jne    6f55 <Main_runtime_override_defaults_oo+0x625>
    6f52:	31 c0                	xor    %eax,%eax
    6f54:	c3                   	ret
    6f55:	48 8b 47 18          	mov    0x18(%rdi),%rax
    6f59:	80 3c 08 00          	cmpb   $0x0,(%rax,%rcx,1)
    6f5d:	0f 94 c0             	sete   %al
    6f60:	c3                   	ret
    6f61:	66 66 66 66 66 66 2e 	data16 data16 data16 data16 data16 cs nopw 0x0(%rax,%rax,1)
    6f68:	0f 1f 84 00 00 00 00 
    6f6f:	00 
    6f70:	48 8b 47 10          	mov    0x10(%rdi),%rax
    6f74:	48 85 c0             	test   %rax,%rax
    6f77:	74 09                	je     6f82 <Main_runtime_override_defaults_oo+0x652>
    6f79:	48 8b 4f 08          	mov    0x8(%rdi),%rcx
    6f7d:	48 39 c8             	cmp    %rcx,%rax
    6f80:	75 03                	jne    6f85 <Main_runtime_override_defaults_oo+0x655>
    6f82:	31 c0                	xor    %eax,%eax
    6f84:	c3                   	ret
    6f85:	48 8b 47 18          	mov    0x18(%rdi),%rax
    6f89:	80 3c 08 00          	cmpb   $0x0,(%rax,%rcx,1)
    6f8d:	0f 94 c0             	sete   %al
    6f90:	c3                   	ret
    6f91:	66 66 66 66 66 66 2e 	data16 data16 data16 data16 data16 cs nopw 0x0(%rax,%rax,1)
    6f98:	0f 1f 84 00 00 00 00 
    6f9f:	00 
    6fa0:	48 8b 47 10          	mov    0x10(%rdi),%rax
    6fa4:	48 85 c0             	test   %rax,%rax
    6fa7:	74 09                	je     6fb2 <Main_runtime_override_defaults_oo+0x682>
    6fa9:	48 8b 4f 08          	mov    0x8(%rdi),%rcx
    6fad:	48 39 c8             	cmp    %rcx,%rax
    6fb0:	75 03                	jne    6fb5 <Main_runtime_override_defaults_oo+0x685>
    6fb2:	31 c0                	xor    %eax,%eax
    6fb4:	c3                   	ret
    6fb5:	48 8b 47 18          	mov    0x18(%rdi),%rax
    6fb9:	80 3c 08 00          	cmpb   $0x0,(%rax,%rcx,1)
    6fbd:	0f 94 c0             	sete   %al
    6fc0:	c3                   	ret
    6fc1:	66 66 66 66 66 66 2e 	data16 data16 data16 data16 data16 cs nopw 0x0(%rax,%rax,1)
    6fc8:	0f 1f 84 00 00 00 00 
    6fcf:	00 
    6fd0:	48 39 77 10          	cmp    %rsi,0x10(%rdi)
    6fd4:	0f 87 84 00 00 00    	ja     705e <Main_runtime_override_defaults_oo+0x72e>
    6fda:	41 57                	push   %r15
    6fdc:	41 56                	push   %r14
    6fde:	41 54                	push   %r12
    6fe0:	53                   	push   %rbx
    6fe1:	50                   	push   %rax
    6fe2:	48 89 f1             	mov    %rsi,%rcx
    6fe5:	48 ff c1             	inc    %rcx
    6fe8:	48 c7 c0 ff ff ff ff 	mov    $0xffffffffffffffff,%rax
    6fef:	48 0f 45 c1          	cmovne %rcx,%rax
    6ff3:	48 85 c0             	test   %rax,%rax
    6ff6:	78 22                	js     701a <Main_runtime_override_defaults_oo+0x6ea>
    6ff8:	48 83 fe fe          	cmp    $0xfffffffffffffffe,%rsi
    6ffc:	48 c7 c0 fe ff ff ff 	mov    $0xfffffffffffffffe,%rax
    7003:	b9 01 00 00 00       	mov    $0x1,%ecx
    7008:	48 0f 42 c6          	cmovb  %rsi,%rax
    700c:	f3 48 0f bd c0       	lzcnt  %rax,%rax
    7011:	f6 d8                	neg    %al
    7013:	c4 e2 f9 f7 d9       	shlx   %rax,%rcx,%rbx
    7018:	eb 0f                	jmp    7029 <Main_runtime_override_defaults_oo+0x6f9>
    701a:	48 83 f8 fe          	cmp    $0xfffffffffffffffe,%rax
    701e:	48 c7 c3 fe ff ff ff 	mov    $0xfffffffffffffffe,%rbx
    7025:	48 0f 42 d8          	cmovb  %rax,%rbx
    7029:	48 89 5f 10          	mov    %rbx,0x10(%rdi)
    702d:	49 89 fc             	mov    %rdi,%r12
    7030:	4c 8b 77 08          	mov    0x8(%rdi),%r14
    7034:	4c 8b 7f 18          	mov    0x18(%rdi),%r15
    7038:	e8 53 c0 00 00       	call   13090 <pony_ctx>
    703d:	48 89 c7             	mov    %rax,%rdi
    7040:	4c 89 fe             	mov    %r15,%rsi
    7043:	48 89 da             	mov    %rbx,%rdx
    7046:	4c 89 f1             	mov    %r14,%rcx
    7049:	e8 02 2c 00 00       	call   9c50 <pony_realloc>
    704e:	49 89 44 24 18       	mov    %rax,0x18(%r12)
    7053:	48 83 c4 08          	add    $0x8,%rsp
    7057:	5b                   	pop    %rbx
    7058:	41 5c                	pop    %r12
    705a:	41 5e                	pop    %r14
    705c:	41 5f                	pop    %r15
    705e:	48 8d 05 53 eb 01 00 	lea    0x1eb53(%rip),%rax        # 25bb8 <cycle_type+0x1e58>
    7065:	c3                   	ret
    7066:	66 2e 0f 1f 84 00 00 	cs nopw 0x0(%rax,%rax,1)
    706d:	00 00 00 
    7070:	55                   	push   %rbp
    7071:	41 57                	push   %r15
    7073:	41 56                	push   %r14
    7075:	41 55                	push   %r13
    7077:	41 54                	push   %r12
    7079:	53                   	push   %rbx
    707a:	50                   	push   %rax
    707b:	4c 8b 77 08          	mov    0x8(%rdi),%r14
    707f:	48 8b 56 08          	mov    0x8(%rsi),%rdx
    7083:	49 89 f7             	mov    %rsi,%r15
    7086:	48 89 fb             	mov    %rdi,%rbx
    7089:	4a 8d 2c 32          	lea    (%rdx,%r14,1),%rbp
    708d:	48 39 6f 10          	cmp    %rbp,0x10(%rdi)
    7091:	77 6d                	ja     7100 <Main_runtime_override_defaults_oo+0x7d0>
    7093:	48 89 e9             	mov    %rbp,%rcx
    7096:	48 ff c1             	inc    %rcx
    7099:	48 c7 c0 ff ff ff ff 	mov    $0xffffffffffffffff,%rax
    70a0:	48 0f 45 c1          	cmovne %rcx,%rax
    70a4:	48 85 c0             	test   %rax,%rax
    70a7:	78 22                	js     70cb <Main_runtime_override_defaults_oo+0x79b>
    70a9:	48 83 fd fe          	cmp    $0xfffffffffffffffe,%rbp
    70ad:	48 c7 c0 fe ff ff ff 	mov    $0xfffffffffffffffe,%rax
    70b4:	b9 01 00 00 00       	mov    $0x1,%ecx
    70b9:	48 0f 42 c5          	cmovb  %rbp,%rax
    70bd:	f3 48 0f bd c0       	lzcnt  %rax,%rax
    70c2:	f6 d8                	neg    %al
    70c4:	c4 62 f9 f7 e1       	shlx   %rax,%rcx,%r12
    70c9:	eb 0f                	jmp    70da <Main_runtime_override_defaults_oo+0x7aa>
    70cb:	48 83 f8 fe          	cmp    $0xfffffffffffffffe,%rax
    70cf:	49 c7 c4 fe ff ff ff 	mov    $0xfffffffffffffffe,%r12
    70d6:	4c 0f 42 e0          	cmovb  %rax,%r12
    70da:	4c 89 63 10          	mov    %r12,0x10(%rbx)
    70de:	4c 8b 6b 18          	mov    0x18(%rbx),%r13
    70e2:	e8 a9 bf 00 00       	call   13090 <pony_ctx>
    70e7:	48 89 c7             	mov    %rax,%rdi
    70ea:	4c 89 ee             	mov    %r13,%rsi
    70ed:	4c 89 e2             	mov    %r12,%rdx
    70f0:	4c 89 f1             	mov    %r14,%rcx
    70f3:	e8 58 2b 00 00       	call   9c50 <pony_realloc>
    70f8:	48 89 43 18          	mov    %rax,0x18(%rbx)
    70fc:	49 8b 57 08          	mov    0x8(%r15),%rdx
    7100:	49 8b 47 10          	mov    0x10(%r15),%rax
    7104:	48 85 c0             	test   %rax,%rax
    7107:	74 0f                	je     7118 <Main_runtime_override_defaults_oo+0x7e8>
    7109:	48 39 d0             	cmp    %rdx,%rax
    710c:	74 0a                	je     7118 <Main_runtime_override_defaults_oo+0x7e8>
    710e:	49 8b 77 18          	mov    0x18(%r15),%rsi
    7112:	80 3c 16 00          	cmpb   $0x0,(%rsi,%rdx,1)
    7116:	74 26                	je     713e <Main_runtime_override_defaults_oo+0x80e>
    7118:	4c 03 73 18          	add    0x18(%rbx),%r14
    711c:	49 8b 77 18          	mov    0x18(%r15),%rsi
    7120:	4c 89 f7             	mov    %r14,%rdi
    7123:	e8 a8 e4 ff ff       	call   55d0 <memcpy@plt>
    7128:	48 89 6b 08          	mov    %rbp,0x8(%rbx)
    712c:	48 89 d8             	mov    %rbx,%rax
    712f:	48 83 c4 08          	add    $0x8,%rsp
    7133:	5b                   	pop    %rbx
    7134:	41 5c                	pop    %r12
    7136:	41 5d                	pop    %r13
    7138:	41 5e                	pop    %r14
    713a:	41 5f                	pop    %r15
    713c:	5d                   	pop    %rbp
    713d:	c3                   	ret
    713e:	4c 03 73 18          	add    0x18(%rbx),%r14
    7142:	48 ff c2             	inc    %rdx
    7145:	eb d9                	jmp    7120 <Main_runtime_override_defaults_oo+0x7f0>
    7147:	66 0f 1f 84 00 00 00 	nopw   0x0(%rax,%rax,1)
    714e:	00 00 
    7150:	48 89 f0             	mov    %rsi,%rax
    7153:	48 03 47 18          	add    0x18(%rdi),%rax
    7157:	c3                   	ret
    7158:	0f 1f 84 00 00 00 00 	nopl   0x0(%rax,%rax,1)
    715f:	00 
    7160:	48 89 f0             	mov    %rsi,%rax
    7163:	48 03 47 18          	add    0x18(%rdi),%rax
    7167:	c3                   	ret
    7168:	0f 1f 84 00 00 00 00 	nopl   0x0(%rax,%rax,1)
    716f:	00 
    7170:	48 89 f0             	mov    %rsi,%rax
    7173:	48 03 47 18          	add    0x18(%rdi),%rax
    7177:	c3                   	ret
    7178:	0f 1f 84 00 00 00 00 	nopl   0x0(%rax,%rax,1)
    717f:	00 
    7180:	55                   	push   %rbp
    7181:	41 57                	push   %r15
    7183:	41 56                	push   %r14
    7185:	41 54                	push   %r12
    7187:	53                   	push   %rbx
    7188:	4c 8b 77 08          	mov    0x8(%rdi),%r14
    718c:	89 f5                	mov    %esi,%ebp
    718e:	48 89 fb             	mov    %rdi,%rbx
    7191:	49 8d 46 01          	lea    0x1(%r14),%rax
    7195:	48 39 47 10          	cmp    %rax,0x10(%rdi)
    7199:	76 06                	jbe    71a1 <Main_runtime_override_defaults_oo+0x871>
    719b:	48 8b 43 18          	mov    0x18(%rbx),%rax
    719f:	eb 6d                	jmp    720e <Main_runtime_override_defaults_oo+0x8de>
    71a1:	48 89 c2             	mov    %rax,%rdx
    71a4:	48 ff c2             	inc    %rdx
    71a7:	48 c7 c1 ff ff ff ff 	mov    $0xffffffffffffffff,%rcx
    71ae:	48 0f 45 ca          	cmovne %rdx,%rcx
    71b2:	48 85 c9             	test   %rcx,%rcx
    71b5:	78 22                	js     71d9 <Main_runtime_override_defaults_oo+0x8a9>
    71b7:	48 83 f8 fe          	cmp    $0xfffffffffffffffe,%rax
    71bb:	48 c7 c1 fe ff ff ff 	mov    $0xfffffffffffffffe,%rcx
    71c2:	48 0f 42 c8          	cmovb  %rax,%rcx
    71c6:	f3 48 0f bd c1       	lzcnt  %rcx,%rax
    71cb:	b9 01 00 00 00       	mov    $0x1,%ecx
    71d0:	f6 d8                	neg    %al
    71d2:	c4 62 f9 f7 f9       	shlx   %rax,%rcx,%r15
    71d7:	eb 0f                	jmp    71e8 <Main_runtime_override_defaults_oo+0x8b8>
    71d9:	48 83 f9 fe          	cmp    $0xfffffffffffffffe,%rcx
    71dd:	49 c7 c7 fe ff ff ff 	mov    $0xfffffffffffffffe,%r15
    71e4:	4c 0f 42 f9          	cmovb  %rcx,%r15
    71e8:	4c 89 7b 10          	mov    %r15,0x10(%rbx)
    71ec:	4c 8b 63 18          	mov    0x18(%rbx),%r12
    71f0:	e8 9b be 00 00       	call   13090 <pony_ctx>
    71f5:	48 89 c7             	mov    %rax,%rdi
    71f8:	4c 89 e6             	mov    %r12,%rsi
    71fb:	4c 89 fa             	mov    %r15,%rdx
    71fe:	4c 89 f1             	mov    %r14,%rcx
    7201:	e8 4a 2a 00 00       	call   9c50 <pony_realloc>
    7206:	48 89 43 18          	mov    %rax,0x18(%rbx)
    720a:	4c 8b 73 08          	mov    0x8(%rbx),%r14
    720e:	42 88 2c 30          	mov    %bpl,(%rax,%r14,1)
    7212:	48 8b 43 08          	mov    0x8(%rbx),%rax
    7216:	48 8b 4b 18          	mov    0x18(%rbx),%rcx
    721a:	48 8d 50 01          	lea    0x1(%rax),%rdx
    721e:	48 89 53 08          	mov    %rdx,0x8(%rbx)
    7222:	c6 44 01 01 00       	movb   $0x0,0x1(%rcx,%rax,1)
    7227:	48 8d 05 8a e9 01 00 	lea    0x1e98a(%rip),%rax        # 25bb8 <cycle_type+0x1e58>
    722e:	5b                   	pop    %rbx
    722f:	41 5c                	pop    %r12
    7231:	41 5e                	pop    %r14
    7233:	41 5f                	pop    %r15
    7235:	5d                   	pop    %rbp
    7236:	c3                   	ret
    7237:	66 0f 1f 84 00 00 00 	nopw   0x0(%rax,%rax,1)
    723e:	00 00 
    7240:	48 39 77 08          	cmp    %rsi,0x8(%rdi)
    7244:	76 09                	jbe    724f <Main_runtime_override_defaults_oo+0x91f>
    7246:	48 8b 47 18          	mov    0x18(%rdi),%rax
    724a:	0f b6 04 30          	movzbl (%rax,%rsi,1),%eax
    724e:	c3                   	ret
    724f:	50                   	push   %rax
    7250:	e8 6b 82 00 00       	call   f4c0 <pony_error>
    7255:	66 66 2e 0f 1f 84 00 	data16 cs nopw 0x0(%rax,%rax,1)
    725c:	00 00 00 00 
    7260:	48 39 77 08          	cmp    %rsi,0x8(%rdi)
    7264:	76 09                	jbe    726f <Main_runtime_override_defaults_oo+0x93f>
    7266:	48 8b 47 18          	mov    0x18(%rdi),%rax
    726a:	0f b6 04 30          	movzbl (%rax,%rsi,1),%eax
    726e:	c3                   	ret
    726f:	50                   	push   %rax
    7270:	e8 4b 82 00 00       	call   f4c0 <pony_error>
    7275:	66 66 2e 0f 1f 84 00 	data16 cs nopw 0x0(%rax,%rax,1)
    727c:	00 00 00 00 
    7280:	48 39 77 08          	cmp    %rsi,0x8(%rdi)
    7284:	76 09                	jbe    728f <Main_runtime_override_defaults_oo+0x95f>
    7286:	48 8b 47 18          	mov    0x18(%rdi),%rax
    728a:	0f b6 04 30          	movzbl (%rax,%rsi,1),%eax
    728e:	c3                   	ret
    728f:	50                   	push   %rax
    7290:	e8 2b 82 00 00       	call   f4c0 <pony_error>
    7295:	66 66 2e 0f 1f 84 00 	data16 cs nopw 0x0(%rax,%rax,1)
    729c:	00 00 00 00 
    72a0:	48 8b 4f 18          	mov    0x18(%rdi),%rcx
    72a4:	0f b6 04 31          	movzbl (%rcx,%rsi,1),%eax
    72a8:	88 14 31             	mov    %dl,(%rcx,%rsi,1)
    72ab:	c3                   	ret
    72ac:	0f 1f 40 00          	nopl   0x0(%rax)
    72b0:	41 56                	push   %r14
    72b2:	53                   	push   %rbx
    72b3:	50                   	push   %rax
    72b4:	48 89 f3             	mov    %rsi,%rbx
    72b7:	48 ff c3             	inc    %rbx
    72ba:	48 c7 c0 ff ff ff ff 	mov    $0xffffffffffffffff,%rax
    72c1:	49 89 fe             	mov    %rdi,%r14
    72c4:	48 c7 47 08 00 00 00 	movq   $0x0,0x8(%rdi)
    72cb:	00 
    72cc:	48 0f 44 d8          	cmove  %rax,%rbx
    72d0:	48 89 5f 10          	mov    %rbx,0x10(%rdi)
    72d4:	e8 b7 bd 00 00       	call   13090 <pony_ctx>
    72d9:	48 89 c7             	mov    %rax,%rdi
    72dc:	48 89 de             	mov    %rbx,%rsi
    72df:	e8 0c 29 00 00       	call   9bf0 <pony_alloc>
    72e4:	49 89 46 18          	mov    %rax,0x18(%r14)
    72e8:	c6 00 00             	movb   $0x0,(%rax)
    72eb:	48 83 c4 08          	add    $0x8,%rsp
    72ef:	5b                   	pop    %rbx
    72f0:	41 5e                	pop    %r14
    72f2:	c3                   	ret
    72f3:	66 66 66 66 2e 0f 1f 	data16 data16 data16 cs nopw 0x0(%rax,%rax,1)
    72fa:	84 00 00 00 00 00 
    7300:	41 57                	push   %r15
    7302:	41 56                	push   %r14
    7304:	53                   	push   %rbx
    7305:	48 89 fb             	mov    %rdi,%rbx
    7308:	48 85 f6             	test   %rsi,%rsi
    730b:	74 24                	je     7331 <Main_runtime_override_defaults_oo+0xa01>
    730d:	80 3e 00             	cmpb   $0x0,(%rsi)
    7310:	49 89 f6             	mov    %rsi,%r14
    7313:	74 4b                	je     7360 <Main_runtime_override_defaults_oo+0xa30>
    7315:	31 c0                	xor    %eax,%eax
    7317:	66 0f 1f 84 00 00 00 	nopw   0x0(%rax,%rax,1)
    731e:	00 00 
    7320:	41 80 7c 06 01 00    	cmpb   $0x0,0x1(%r14,%rax,1)
    7326:	4c 8d 78 01          	lea    0x1(%rax),%r15
    732a:	4c 89 f8             	mov    %r15,%rax
    732d:	75 f1                	jne    7320 <Main_runtime_override_defaults_oo+0x9f0>
    732f:	eb 32                	jmp    7363 <Main_runtime_override_defaults_oo+0xa33>
    7331:	48 c7 43 08 00 00 00 	movq   $0x0,0x8(%rbx)
    7338:	00 
    7339:	48 c7 43 10 01 00 00 	movq   $0x1,0x10(%rbx)
    7340:	00 
    7341:	e8 4a bd 00 00       	call   13090 <pony_ctx>
    7346:	be 01 00 00 00       	mov    $0x1,%esi
    734b:	48 89 c7             	mov    %rax,%rdi
    734e:	e8 9d 28 00 00       	call   9bf0 <pony_alloc>
    7353:	48 89 43 18          	mov    %rax,0x18(%rbx)
    7357:	c6 00 00             	movb   $0x0,(%rax)
    735a:	5b                   	pop    %rbx
    735b:	41 5e                	pop    %r14
    735d:	41 5f                	pop    %r15
    735f:	c3                   	ret
    7360:	45 31 ff             	xor    %r15d,%r15d
    7363:	4c 89 7b 08          	mov    %r15,0x8(%rbx)
    7367:	49 ff c7             	inc    %r15
    736a:	4c 89 7b 10          	mov    %r15,0x10(%rbx)
    736e:	e8 1d bd 00 00       	call   13090 <pony_ctx>
    7373:	48 89 c7             	mov    %rax,%rdi
    7376:	4c 89 fe             	mov    %r15,%rsi
    7379:	e8 72 28 00 00       	call   9bf0 <pony_alloc>
    737e:	48 89 43 18          	mov    %rax,0x18(%rbx)
    7382:	48 89 c7             	mov    %rax,%rdi
    7385:	4c 89 f6             	mov    %r14,%rsi
    7388:	48 8b 53 10          	mov    0x10(%rbx),%rdx
    738c:	5b                   	pop    %rbx
    738d:	41 5e                	pop    %r14
    738f:	41 5f                	pop    %r15
    7391:	e9 3a e2 ff ff       	jmp    55d0 <memcpy@plt>
    7396:	66 2e 0f 1f 84 00 00 	cs nopw 0x0(%rax,%rax,1)
    739d:	00 00 00 
    73a0:	48 8b 47 08          	mov    0x8(%rdi),%rax
    73a4:	48 83 f8 02          	cmp    $0x2,%rax
    73a8:	72 40                	jb     73ea <Main_runtime_override_defaults_oo+0xaba>
    73aa:	48 ff c8             	dec    %rax
    73ad:	b9 01 00 00 00       	mov    $0x1,%ecx
    73b2:	66 66 66 66 66 2e 0f 	data16 data16 data16 data16 cs nopw 0x0(%rax,%rax,1)
    73b9:	1f 84 00 00 00 00 00 
    73c0:	48 8b 57 18          	mov    0x18(%rdi),%rdx
    73c4:	44 0f b6 04 02       	movzbl (%rdx,%rax,1),%r8d
    73c9:	0f b6 74 0a ff       	movzbl -0x1(%rdx,%rcx,1),%esi
    73ce:	44 88 44 0a ff       	mov    %r8b,-0x1(%rdx,%rcx,1)
    73d3:	48 8b 57 18          	mov    0x18(%rdi),%rdx
    73d7:	40 88 34 02          	mov    %sil,(%rdx,%rax,1)
    73db:	48 ff c8             	dec    %rax
    73de:	48 8d 51 01          	lea    0x1(%rcx),%rdx
    73e2:	48 39 c1             	cmp    %rax,%rcx
    73e5:	48 89 d1             	mov    %rdx,%rcx
    73e8:	72 d6                	jb     73c0 <Main_runtime_override_defaults_oo+0xa90>
    73ea:	48 8d 05 c7 e7 01 00 	lea    0x1e7c7(%rip),%rax        # 25bb8 <cycle_type+0x1e58>
    73f1:	c3                   	ret
    73f2:	66 66 66 66 66 2e 0f 	data16 data16 data16 data16 cs nopw 0x0(%rax,%rax,1)
    73f9:	1f 84 00 00 00 00 00 
    7400:	41 57                	push   %r15
    7402:	41 56                	push   %r14
    7404:	41 55                	push   %r13
    7406:	41 54                	push   %r12
    7408:	53                   	push   %rbx
    7409:	4c 8b 7f 08          	mov    0x8(%rdi),%r15
    740d:	49 89 f6             	mov    %rsi,%r14
    7410:	48 89 fb             	mov    %rdi,%rbx
    7413:	49 8d 47 01          	lea    0x1(%r15),%rax
    7417:	48 39 47 10          	cmp    %rax,0x10(%rdi)
    741b:	73 5f                	jae    747c <Main_runtime_override_defaults_oo+0xb4c>
    741d:	f3 49 0f bd cf       	lzcnt  %r15,%rcx
    7422:	41 bc 08 00 00 00    	mov    $0x8,%r12d
    7428:	89 ca                	mov    %ecx,%edx
    742a:	f6 da                	neg    %dl
    742c:	48 85 c9             	test   %rcx,%rcx
    742f:	b9 01 00 00 00       	mov    $0x1,%ecx
    7434:	c4 e2 e9 f7 d1       	shlx   %rdx,%rcx,%rdx
    7439:	48 0f 44 d1          	cmove  %rcx,%rdx
    743d:	48 39 c2             	cmp    %rax,%rdx
    7440:	48 0f 46 d0          	cmovbe %rax,%rdx
    7444:	48 83 fa 09          	cmp    $0x9,%rdx
    7448:	4c 0f 43 e2          	cmovae %rdx,%r12
    744c:	4c 89 63 10          	mov    %r12,0x10(%rbx)
    7450:	4c 8b 6b 18          	mov    0x18(%rbx),%r13
    7454:	e8 37 bc 00 00       	call   13090 <pony_ctx>
    7459:	49 c1 e4 03          	shl    $0x3,%r12
    745d:	49 c1 e7 03          	shl    $0x3,%r15
    7461:	48 89 c7             	mov    %rax,%rdi
    7464:	4c 89 ee             	mov    %r13,%rsi
    7467:	4c 89 e2             	mov    %r12,%rdx
    746a:	4c 89 f9             	mov    %r15,%rcx
    746d:	e8 de 27 00 00       	call   9c50 <pony_realloc>
    7472:	48 89 43 18          	mov    %rax,0x18(%rbx)
    7476:	4c 8b 7b 08          	mov    0x8(%rbx),%r15
    747a:	eb 04                	jmp    7480 <Main_runtime_override_defaults_oo+0xb50>
    747c:	48 8b 43 18          	mov    0x18(%rbx),%rax
    7480:	4e 89 34 f8          	mov    %r14,(%rax,%r15,8)
    7484:	48 ff 43 08          	incq   0x8(%rbx)
    7488:	48 8d 05 29 e7 01 00 	lea    0x1e729(%rip),%rax        # 25bb8 <cycle_type+0x1e58>
    748f:	5b                   	pop    %rbx
    7490:	41 5c                	pop    %r12
    7492:	41 5d                	pop    %r13
    7494:	41 5e                	pop    %r14
    7496:	41 5f                	pop    %r15
    7498:	c3                   	ret
    7499:	0f 1f 80 00 00 00 00 	nopl   0x0(%rax)
    74a0:	48 39 77 10          	cmp    %rsi,0x10(%rdi)
    74a4:	73 77                	jae    751d <Main_runtime_override_defaults_oo+0xbed>
    74a6:	41 57                	push   %r15
    74a8:	41 56                	push   %r14
    74aa:	41 54                	push   %r12
    74ac:	53                   	push   %rbx
    74ad:	50                   	push   %rax
    74ae:	48 8d 46 ff          	lea    -0x1(%rsi),%rax
    74b2:	bb 08 00 00 00       	mov    $0x8,%ebx
    74b7:	49 89 fc             	mov    %rdi,%r12
    74ba:	f3 48 0f bd c0       	lzcnt  %rax,%rax
    74bf:	89 c1                	mov    %eax,%ecx
    74c1:	f6 d9                	neg    %cl
    74c3:	48 85 c0             	test   %rax,%rax
    74c6:	b8 01 00 00 00       	mov    $0x1,%eax
    74cb:	c4 e2 f1 f7 c8       	shlx   %rcx,%rax,%rcx
    74d0:	48 0f 44 c8          	cmove  %rax,%rcx
    74d4:	48 39 f1             	cmp    %rsi,%rcx
    74d7:	48 0f 46 ce          	cmovbe %rsi,%rcx
    74db:	48 83 f9 09          	cmp    $0x9,%rcx
    74df:	48 0f 43 d9          	cmovae %rcx,%rbx
    74e3:	48 89 5f 10          	mov    %rbx,0x10(%rdi)
    74e7:	4c 8b 77 08          	mov    0x8(%rdi),%r14
    74eb:	4c 8b 7f 18          	mov    0x18(%rdi),%r15
    74ef:	e8 9c bb 00 00       	call   13090 <pony_ctx>
    74f4:	48 c1 e3 03          	shl    $0x3,%rbx
    74f8:	49 c1 e6 03          	shl    $0x3,%r14
    74fc:	48 89 c7             	mov    %rax,%rdi
    74ff:	4c 89 fe             	mov    %r15,%rsi
    7502:	48 89 da             	mov    %rbx,%rdx
    7505:	4c 89 f1             	mov    %r14,%rcx
    7508:	e8 43 27 00 00       	call   9c50 <pony_realloc>
    750d:	49 89 44 24 18       	mov    %rax,0x18(%r12)
    7512:	48 83 c4 08          	add    $0x8,%rsp
    7516:	5b                   	pop    %rbx
    7517:	41 5c                	pop    %r12
    7519:	41 5e                	pop    %r14
    751b:	41 5f                	pop    %r15
    751d:	48 8d 05 94 e6 01 00 	lea    0x1e694(%rip),%rax        # 25bb8 <cycle_type+0x1e58>
    7524:	c3                   	ret
    7525:	66 66 2e 0f 1f 84 00 	data16 cs nopw 0x0(%rax,%rax,1)
    752c:	00 00 00 00 
    7530:	41 56                	push   %r14
    7532:	53                   	push   %rbx
    7533:	50                   	push   %rax
    7534:	48 89 fb             	mov    %rdi,%rbx
    7537:	48 c7 47 08 00 00 00 	movq   $0x0,0x8(%rdi)
    753e:	00 
    753f:	48 85 f6             	test   %rsi,%rsi
    7542:	74 4d                	je     7591 <Main_runtime_override_defaults_oo+0xc61>
    7544:	48 8d 46 ff          	lea    -0x1(%rsi),%rax
    7548:	41 be 08 00 00 00    	mov    $0x8,%r14d
    754e:	f3 48 0f bd c0       	lzcnt  %rax,%rax
    7553:	89 c1                	mov    %eax,%ecx
    7555:	f6 d9                	neg    %cl
    7557:	48 85 c0             	test   %rax,%rax
    755a:	b8 01 00 00 00       	mov    $0x1,%eax
    755f:	c4 e2 f1 f7 c8       	shlx   %rcx,%rax,%rcx
    7564:	48 0f 44 c8          	cmove  %rax,%rcx
    7568:	48 39 f1             	cmp    %rsi,%rcx
    756b:	48 0f 46 ce          	cmovbe %rsi,%rcx
    756f:	48 83 f9 09          	cmp    $0x9,%rcx
    7573:	4c 0f 43 f1          	cmovae %rcx,%r14
    7577:	4c 89 73 10          	mov    %r14,0x10(%rbx)
    757b:	e8 10 bb 00 00       	call   13090 <pony_ctx>
    7580:	49 c1 e6 03          	shl    $0x3,%r14
    7584:	48 89 c7             	mov    %rax,%rdi
    7587:	4c 89 f6             	mov    %r14,%rsi
    758a:	e8 61 26 00 00       	call   9bf0 <pony_alloc>
    758f:	eb 0a                	jmp    759b <Main_runtime_override_defaults_oo+0xc6b>
    7591:	31 c0                	xor    %eax,%eax
    7593:	48 c7 43 10 00 00 00 	movq   $0x0,0x10(%rbx)
    759a:	00 
    759b:	48 89 43 18          	mov    %rax,0x18(%rbx)
    759f:	48 83 c4 08          	add    $0x8,%rsp
    75a3:	5b                   	pop    %rbx
    75a4:	41 5e                	pop    %r14
    75a6:	c3                   	ret
    75a7:	66 0f 1f 84 00 00 00 	nopw   0x0(%rax,%rax,1)
    75ae:	00 00 
    75b0:	0f b6 47 08          	movzbl 0x8(%rdi),%eax
    75b4:	83 e0 01             	and    $0x1,%eax
    75b7:	c3                   	ret
    75b8:	0f 1f 84 00 00 00 00 	nopl   0x0(%rax,%rax,1)
    75bf:	00 
    75c0:	48 8b 47 08          	mov    0x8(%rdi),%rax
    75c4:	c3                   	ret
    75c5:	66 66 2e 0f 1f 84 00 	data16 cs nopw 0x0(%rax,%rax,1)
    75cc:	00 00 00 00 
    75d0:	41 57                	push   %r15
    75d2:	41 56                	push   %r14
    75d4:	53                   	push   %rbx
    75d5:	89 f3                	mov    %esi,%ebx
    75d7:	49 89 fe             	mov    %rdi,%r14
    75da:	e8 b1 ba 00 00       	call   13090 <pony_ctx>
    75df:	be 01 00 00 00       	mov    $0x1,%esi
    75e4:	31 ff                	xor    %edi,%edi
    75e6:	49 89 c7             	mov    %rax,%r15
    75e9:	80 e3 01             	and    $0x1,%bl
    75ec:	e8 bf 22 00 00       	call   98b0 <pony_alloc_msg>
    75f1:	41 b8 01 00 00 00    	mov    $0x1,%r8d
    75f7:	88 58 10             	mov    %bl,0x10(%rax)
    75fa:	4c 89 ff             	mov    %r15,%rdi
    75fd:	4c 89 f6             	mov    %r14,%rsi
    7600:	48 89 c2             	mov    %rax,%rdx
    7603:	48 89 c1             	mov    %rax,%rcx
    7606:	e8 85 23 00 00       	call   9990 <pony_sendv_single>
    760b:	4c 89 f0             	mov    %r14,%rax
    760e:	5b                   	pop    %rbx
    760f:	41 5e                	pop    %r14
    7611:	41 5f                	pop    %r15
    7613:	c3                   	ret
    7614:	66 66 66 2e 0f 1f 84 	data16 data16 cs nopw 0x0(%rax,%rax,1)
    761b:	00 00 00 00 00 
    7620:	55                   	push   %rbp
    7621:	41 57                	push   %r15
    7623:	41 56                	push   %r14
    7625:	41 55                	push   %r13
    7627:	41 54                	push   %r12
    7629:	53                   	push   %rbx
    762a:	50                   	push   %rax
    762b:	48 89 fb             	mov    %rdi,%rbx
    762e:	e8 5d ba 00 00       	call   13090 <pony_ctx>
    7633:	4c 8b b3 30 01 00 00 	mov    0x130(%rbx),%r14
    763a:	49 89 c7             	mov    %rax,%r15
    763d:	49 8b 06             	mov    (%r14),%rax
    7640:	48 8b 40 68          	mov    0x68(%rax),%rax
    7644:	f6 00 40             	testb  $0x40,(%rax)
    7647:	0f 84 65 01 00 00    	je     77b2 <Main_runtime_override_defaults_oo+0xe82>
    764d:	31 ed                	xor    %ebp,%ebp
    764f:	eb 30                	jmp    7681 <Main_runtime_override_defaults_oo+0xd51>
    7651:	66 66 66 66 66 66 2e 	data16 data16 data16 data16 data16 cs nopw 0x0(%rax,%rax,1)
    7658:	0f 1f 84 00 00 00 00 
    765f:	00 
    7660:	49 89 44 24 08       	mov    %rax,0x8(%r12)
    7665:	4c 89 f7             	mov    %r14,%rdi
    7668:	4c 89 e6             	mov    %r12,%rsi
    766b:	49 8b 06             	mov    (%r14),%rax
    766e:	ff 50 78             	call   *0x78(%rax)
    7671:	4c 01 ed             	add    %r13,%rbp
    7674:	48 81 fd 01 10 00 00 	cmp    $0x1001,%rbp
    767b:	0f 83 f1 00 00 00    	jae    7772 <Main_runtime_override_defaults_oo+0xe42>
    7681:	4c 8b ab 38 01 00 00 	mov    0x138(%rbx),%r13
    7688:	4c 89 ff             	mov    %r15,%rdi
    768b:	31 f6                	xor    %esi,%esi
    768d:	e8 7e 25 00 00       	call   9c10 <pony_alloc_small>
    7692:	48 8d 0d a7 da 01 00 	lea    0x1daa7(%rip),%rcx        # 25140 <cycle_type+0x13e0>
    7699:	49 89 c4             	mov    %rax,%r12
    769c:	c5 f8 57 c0          	vxorps %xmm0,%xmm0,%xmm0
    76a0:	49 89 0c 24          	mov    %rcx,(%r12)
    76a4:	c4 c1 78 11 44 24 10 	vmovups %xmm0,0x10(%r12)
    76ab:	4d 85 ed             	test   %r13,%r13
    76ae:	74 50                	je     7700 <Main_runtime_override_defaults_oo+0xdd0>
    76b0:	49 8d 45 ff          	lea    -0x1(%r13),%rax
    76b4:	f3 48 0f bd c0       	lzcnt  %rax,%rax
    76b9:	89 c1                	mov    %eax,%ecx
    76bb:	f6 d9                	neg    %cl
    76bd:	48 85 c0             	test   %rax,%rax
    76c0:	b8 01 00 00 00       	mov    $0x1,%eax
    76c5:	c4 e2 f1 f7 d0       	shlx   %rcx,%rax,%rdx
    76ca:	48 0f 44 d0          	cmove  %rax,%rdx
    76ce:	4c 39 ea             	cmp    %r13,%rdx
    76d1:	49 0f 46 d5          	cmovbe %r13,%rdx
    76d5:	48 83 fa 09          	cmp    $0x9,%rdx
    76d9:	73 05                	jae    76e0 <Main_runtime_override_defaults_oo+0xdb0>
    76db:	ba 08 00 00 00       	mov    $0x8,%edx
    76e0:	49 89 54 24 10       	mov    %rdx,0x10(%r12)
    76e5:	4c 89 ff             	mov    %r15,%rdi
    76e8:	31 f6                	xor    %esi,%esi
    76ea:	31 c9                	xor    %ecx,%ecx
    76ec:	e8 5f 25 00 00       	call   9c50 <pony_realloc>
    76f1:	48 89 c7             	mov    %rax,%rdi
    76f4:	49 89 44 24 18       	mov    %rax,0x18(%r12)
    76f9:	eb 07                	jmp    7702 <Main_runtime_override_defaults_oo+0xdd2>
    76fb:	0f 1f 44 00 00       	nopl   0x0(%rax,%rax,1)
    7700:	31 ff                	xor    %edi,%edi
    7702:	4c 89 ee             	mov    %r13,%rsi
    7705:	4d 89 6c 24 08       	mov    %r13,0x8(%r12)
    770a:	e8 21 82 00 00       	call   f930 <pony_os_stdin_read>
    770f:	48 85 c0             	test   %rax,%rax
    7712:	74 24                	je     7738 <Main_runtime_override_defaults_oo+0xe08>
    7714:	49 89 c5             	mov    %rax,%r13
    7717:	48 83 f8 ff          	cmp    $0xffffffffffffffff,%rax
    771b:	74 16                	je     7733 <Main_runtime_override_defaults_oo+0xe03>
    771d:	49 8b 44 24 08       	mov    0x8(%r12),%rax
    7722:	4c 39 e8             	cmp    %r13,%rax
    7725:	0f 82 35 ff ff ff    	jb     7660 <Main_runtime_override_defaults_oo+0xd30>
    772b:	4c 89 e8             	mov    %r13,%rax
    772e:	e9 2d ff ff ff       	jmp    7660 <Main_runtime_override_defaults_oo+0xd30>
    7733:	40 b5 01             	mov    $0x1,%bpl
    7736:	eb 69                	jmp    77a1 <Main_runtime_override_defaults_oo+0xe71>
    7738:	48 8b bb 40 01 00 00 	mov    0x140(%rbx),%rdi
    773f:	48 85 ff             	test   %rdi,%rdi
    7742:	74 10                	je     7754 <Main_runtime_override_defaults_oo+0xe24>
    7744:	e8 c7 35 00 00       	call   ad10 <pony_asio_event_unsubscribe>
    7749:	48 c7 83 40 01 00 00 	movq   $0x0,0x140(%rbx)
    7750:	00 00 00 00 
    7754:	49 8b 06             	mov    (%r14),%rax
    7757:	4c 89 f7             	mov    %r14,%rdi
    775a:	ff 90 80 00 00 00    	call   *0x80(%rax)
    7760:	48 8d 05 51 e4 01 00 	lea    0x1e451(%rip),%rax        # 25bb8 <cycle_type+0x1e58>
    7767:	31 ed                	xor    %ebp,%ebp
    7769:	48 89 83 30 01 00 00 	mov    %rax,0x130(%rbx)
    7770:	eb 2f                	jmp    77a1 <Main_runtime_override_defaults_oo+0xe71>
    7772:	f6 83 48 01 00 00 01 	testb  $0x1,0x148(%rbx)
    7779:	40 b5 01             	mov    $0x1,%bpl
    777c:	74 23                	je     77a1 <Main_runtime_override_defaults_oo+0xe71>
    777e:	be 04 00 00 00       	mov    $0x4,%esi
    7783:	31 ff                	xor    %edi,%edi
    7785:	e8 26 21 00 00       	call   98b0 <pony_alloc_msg>
    778a:	41 b8 01 00 00 00    	mov    $0x1,%r8d
    7790:	4c 89 ff             	mov    %r15,%rdi
    7793:	48 89 de             	mov    %rbx,%rsi
    7796:	48 89 c2             	mov    %rax,%rdx
    7799:	48 89 c1             	mov    %rax,%rcx
    779c:	e8 4f 21 00 00       	call   98f0 <pony_sendv>
    77a1:	89 e8                	mov    %ebp,%eax
    77a3:	48 83 c4 08          	add    $0x8,%rsp
    77a7:	5b                   	pop    %rbx
    77a8:	41 5c                	pop    %r12
    77aa:	41 5d                	pop    %r13
    77ac:	41 5e                	pop    %r14
    77ae:	41 5f                	pop    %r15
    77b0:	5d                   	pop    %rbp
    77b1:	c3                   	ret
    77b2:	e8 09 7d 00 00       	call   f4c0 <pony_error>
    77b7:	48 8b bb 40 01 00 00 	mov    0x140(%rbx),%rdi
    77be:	48 85 ff             	test   %rdi,%rdi
    77c1:	74 10                	je     77d3 <Main_runtime_override_defaults_oo+0xea3>
    77c3:	e8 48 35 00 00       	call   ad10 <pony_asio_event_unsubscribe>
    77c8:	48 c7 83 40 01 00 00 	movq   $0x0,0x140(%rbx)
    77cf:	00 00 00 00 
    77d3:	31 ed                	xor    %ebp,%ebp
    77d5:	eb ca                	jmp    77a1 <Main_runtime_override_defaults_oo+0xe71>
    77d7:	66 0f 1f 84 00 00 00 	nopw   0x0(%rax,%rax,1)
    77de:	00 00 
    77e0:	41 56                	push   %r14
    77e2:	53                   	push   %rbx
    77e3:	50                   	push   %rax
    77e4:	48 89 fb             	mov    %rdi,%rbx
    77e7:	e8 a4 b8 00 00       	call   13090 <pony_ctx>
    77ec:	be 04 00 00 00       	mov    $0x4,%esi
    77f1:	31 ff                	xor    %edi,%edi
    77f3:	49 89 c6             	mov    %rax,%r14
    77f6:	e8 b5 20 00 00       	call   98b0 <pony_alloc_msg>
    77fb:	41 b8 01 00 00 00    	mov    $0x1,%r8d
    7801:	4c 89 f7             	mov    %r14,%rdi
    7804:	48 89 de             	mov    %rbx,%rsi
    7807:	48 89 c2             	mov    %rax,%rdx
    780a:	48 89 c1             	mov    %rax,%rcx
    780d:	e8 de 20 00 00       	call   98f0 <pony_sendv>
    7812:	48 8d 05 9f e3 01 00 	lea    0x1e39f(%rip),%rax        # 25bb8 <cycle_type+0x1e58>
    7819:	48 83 c4 08          	add    $0x8,%rsp
    781d:	5b                   	pop    %rbx
    781e:	41 5e                	pop    %r14
    7820:	c3                   	ret
    7821:	66 66 66 66 66 66 2e 	data16 data16 data16 data16 data16 cs nopw 0x0(%rax,%rax,1)
    7828:	0f 1f 84 00 00 00 00 
    782f:	00 
    7830:	53                   	push   %rbx
    7831:	48 89 fb             	mov    %rdi,%rbx
    7834:	48 8b bf 40 01 00 00 	mov    0x140(%rdi),%rdi
    783b:	48 85 ff             	test   %rdi,%rdi
    783e:	74 10                	je     7850 <Main_runtime_override_defaults_oo+0xf20>
    7840:	e8 cb 34 00 00       	call   ad10 <pony_asio_event_unsubscribe>
    7845:	48 c7 83 40 01 00 00 	movq   $0x0,0x140(%rbx)
    784c:	00 00 00 00 
    7850:	48 8d 05 61 e3 01 00 	lea    0x1e361(%rip),%rax        # 25bb8 <cycle_type+0x1e58>
    7857:	5b                   	pop    %rbx
    7858:	c3                   	ret
    7859:	0f 1f 80 00 00 00 00 	nopl   0x0(%rax)
    7860:	55                   	push   %rbp
    7861:	41 57                	push   %r15
    7863:	41 56                	push   %r14
    7865:	41 55                	push   %r13
    7867:	41 54                	push   %r12
    7869:	53                   	push   %rbx
    786a:	50                   	push   %rax
    786b:	89 cd                	mov    %ecx,%ebp
    786d:	41 89 d6             	mov    %edx,%r14d
    7870:	49 89 f7             	mov    %rsi,%r15
    7873:	48 89 fb             	mov    %rdi,%rbx
    7876:	e8 15 b8 00 00       	call   13090 <pony_ctx>
    787b:	49 89 c4             	mov    %rax,%r12
    787e:	31 ff                	xor    %edi,%edi
    7880:	31 f6                	xor    %esi,%esi
    7882:	e8 29 20 00 00       	call   98b0 <pony_alloc_msg>
    7887:	4c 89 78 10          	mov    %r15,0x10(%rax)
    788b:	44 89 70 18          	mov    %r14d,0x18(%rax)
    788f:	4c 89 e7             	mov    %r12,%rdi
    7892:	49 89 c5             	mov    %rax,%r13
    7895:	89 68 1c             	mov    %ebp,0x1c(%rax)
    7898:	e8 03 7a 00 00       	call   f2a0 <pony_gc_send>
    789d:	48 8d 15 5c c8 01 00 	lea    0x1c85c(%rip),%rdx        # 24100 <cycle_type+0x3a0>
    78a4:	b9 02 00 00 00       	mov    $0x2,%ecx
    78a9:	4c 89 e7             	mov    %r12,%rdi
    78ac:	4c 89 fe             	mov    %r15,%rsi
    78af:	e8 bc 7b 00 00       	call   f470 <pony_traceknown>
    78b4:	4c 89 e7             	mov    %r12,%rdi
    78b7:	e8 84 7a 00 00       	call   f340 <pony_send_done>
    78bc:	41 b8 01 00 00 00    	mov    $0x1,%r8d
    78c2:	4c 89 e7             	mov    %r12,%rdi
    78c5:	48 89 de             	mov    %rbx,%rsi
    78c8:	4c 89 ea             	mov    %r13,%rdx
    78cb:	4c 89 e9             	mov    %r13,%rcx
    78ce:	e8 1d 20 00 00       	call   98f0 <pony_sendv>
    78d3:	48 8d 05 de e2 01 00 	lea    0x1e2de(%rip),%rax        # 25bb8 <cycle_type+0x1e58>
    78da:	48 83 c4 08          	add    $0x8,%rsp
    78de:	5b                   	pop    %rbx
    78df:	41 5c                	pop    %r12
    78e1:	41 5d                	pop    %r13
    78e3:	41 5e                	pop    %r14
    78e5:	41 5f                	pop    %r15
    78e7:	5d                   	pop    %rbp
    78e8:	c3                   	ret
    78e9:	0f 1f 80 00 00 00 00 	nopl   0x0(%rax)
    78f0:	8b 47 08             	mov    0x8(%rdi),%eax
    78f3:	c3                   	ret
    78f4:	66 66 66 2e 0f 1f 84 	data16 data16 cs nopw 0x0(%rax,%rax,1)
    78fb:	00 00 00 00 00 
    7900:	48 8b 47 10          	mov    0x10(%rdi),%rax
    7904:	48 33 47 08          	xor    0x8(%rdi),%rax
    7908:	c3                   	ret
    7909:	0f 1f 80 00 00 00 00 	nopl   0x0(%rax)
    7910:	8b 4a 14             	mov    0x14(%rdx),%ecx
    7913:	48 8b 52 70          	mov    0x70(%rdx),%rdx
    7917:	4c 8b 47 08          	mov    0x8(%rdi),%r8
    791b:	48 8b 47 10          	mov    0x10(%rdi),%rax
    791f:	48 01 f1             	add    %rsi,%rcx
    7922:	8b 32                	mov    (%rdx),%esi
    7924:	48 8b 7a 08          	mov    0x8(%rdx),%rdi
    7928:	48 01 ce             	add    %rcx,%rsi
    792b:	48 85 ff             	test   %rdi,%rdi
    792e:	74 13                	je     7943 <Main_runtime_override_defaults_oo+0x1013>
    7930:	4c 8d 0d 39 c6 01 00 	lea    0x1c639(%rip),%r9        # 23f70 <cycle_type+0x210>
    7937:	4c 39 cf             	cmp    %r9,%rdi
    793a:	75 50                	jne    798c <Main_runtime_override_defaults_oo+0x105c>
    793c:	4c 3b 06             	cmp    (%rsi),%r8
    793f:	75 4b                	jne    798c <Main_runtime_override_defaults_oo+0x105c>
    7941:	eb 18                	jmp    795b <Main_runtime_override_defaults_oo+0x102b>
    7943:	48 8b 36             	mov    (%rsi),%rsi
    7946:	48 8d 3d 23 c6 01 00 	lea    0x1c623(%rip),%rdi        # 23f70 <cycle_type+0x210>
    794d:	48 39 3e             	cmp    %rdi,(%rsi)
    7950:	75 3a                	jne    798c <Main_runtime_override_defaults_oo+0x105c>
    7952:	48 83 c6 08          	add    $0x8,%rsi
    7956:	4c 3b 06             	cmp    (%rsi),%r8
    7959:	75 31                	jne    798c <Main_runtime_override_defaults_oo+0x105c>
    795b:	48 8b 72 18          	mov    0x18(%rdx),%rsi
    795f:	8b 52 10             	mov    0x10(%rdx),%edx
    7962:	48 01 d1             	add    %rdx,%rcx
    7965:	48 85 f6             	test   %rsi,%rsi
    7968:	74 13                	je     797d <Main_runtime_override_defaults_oo+0x104d>
    796a:	48 8d 15 ff c5 01 00 	lea    0x1c5ff(%rip),%rdx        # 23f70 <cycle_type+0x210>
    7971:	48 39 d6             	cmp    %rdx,%rsi
    7974:	75 16                	jne    798c <Main_runtime_override_defaults_oo+0x105c>
    7976:	48 3b 01             	cmp    (%rcx),%rax
    7979:	0f 94 c0             	sete   %al
    797c:	c3                   	ret
    797d:	48 8b 09             	mov    (%rcx),%rcx
    7980:	48 8d 15 e9 c5 01 00 	lea    0x1c5e9(%rip),%rdx        # 23f70 <cycle_type+0x210>
    7987:	48 39 11             	cmp    %rdx,(%rcx)
    798a:	74 03                	je     798f <Main_runtime_override_defaults_oo+0x105f>
    798c:	31 c0                	xor    %eax,%eax
    798e:	c3                   	ret
    798f:	48 83 c1 08          	add    $0x8,%rcx
    7993:	48 3b 01             	cmp    (%rcx),%rax
    7996:	0f 94 c0             	sete   %al
    7999:	c3                   	ret
    799a:	66 0f 1f 44 00 00    	nopw   0x0(%rax,%rax,1)
    79a0:	48 8b 47 08          	mov    0x8(%rdi),%rax
    79a4:	c3                   	ret
    79a5:	66 66 2e 0f 1f 84 00 	data16 cs nopw 0x0(%rax,%rax,1)
    79ac:	00 00 00 00 
    79b0:	48 8b 47 08          	mov    0x8(%rdi),%rax
    79b4:	c3                   	ret
    79b5:	66 66 2e 0f 1f 84 00 	data16 cs nopw 0x0(%rax,%rax,1)
    79bc:	00 00 00 00 
    79c0:	48 8b 47 08          	mov    0x8(%rdi),%rax
    79c4:	c3                   	ret
    79c5:	66 66 2e 0f 1f 84 00 	data16 cs nopw 0x0(%rax,%rax,1)
    79cc:	00 00 00 00 
    79d0:	48 8b 47 08          	mov    0x8(%rdi),%rax
    79d4:	c3                   	ret
    79d5:	66 66 2e 0f 1f 84 00 	data16 cs nopw 0x0(%rax,%rax,1)
    79dc:	00 00 00 00 
    79e0:	48 8b 47 08          	mov    0x8(%rdi),%rax
    79e4:	c3                   	ret
    79e5:	66 66 2e 0f 1f 84 00 	data16 cs nopw 0x0(%rax,%rax,1)
    79ec:	00 00 00 00 
    79f0:	48 39 77 10          	cmp    %rsi,0x10(%rdi)
    79f4:	73 6f                	jae    7a65 <Main_runtime_override_defaults_oo+0x1135>
    79f6:	41 57                	push   %r15
    79f8:	41 56                	push   %r14
    79fa:	41 54                	push   %r12
    79fc:	53                   	push   %rbx
    79fd:	50                   	push   %rax
    79fe:	48 8d 46 ff          	lea    -0x1(%rsi),%rax
    7a02:	bb 08 00 00 00       	mov    $0x8,%ebx
    7a07:	49 89 fc             	mov    %rdi,%r12
    7a0a:	f3 48 0f bd c0       	lzcnt  %rax,%rax
    7a0f:	89 c1                	mov    %eax,%ecx
    7a11:	f6 d9                	neg    %cl
    7a13:	48 85 c0             	test   %rax,%rax
    7a16:	b8 01 00 00 00       	mov    $0x1,%eax
    7a1b:	c4 e2 f1 f7 c8       	shlx   %rcx,%rax,%rcx
    7a20:	48 0f 44 c8          	cmove  %rax,%rcx
    7a24:	48 39 f1             	cmp    %rsi,%rcx
    7a27:	48 0f 46 ce          	cmovbe %rsi,%rcx
    7a2b:	48 83 f9 09          	cmp    $0x9,%rcx
    7a2f:	48 0f 43 d9          	cmovae %rcx,%rbx
    7a33:	48 89 5f 10          	mov    %rbx,0x10(%rdi)
    7a37:	4c 8b 77 08          	mov    0x8(%rdi),%r14
    7a3b:	4c 8b 7f 18          	mov    0x18(%rdi),%r15
    7a3f:	e8 4c b6 00 00       	call   13090 <pony_ctx>
    7a44:	48 89 c7             	mov    %rax,%rdi
    7a47:	4c 89 fe             	mov    %r15,%rsi
    7a4a:	48 89 da             	mov    %rbx,%rdx
    7a4d:	4c 89 f1             	mov    %r14,%rcx
    7a50:	e8 fb 21 00 00       	call   9c50 <pony_realloc>
    7a55:	49 89 44 24 18       	mov    %rax,0x18(%r12)
    7a5a:	48 83 c4 08          	add    $0x8,%rsp
    7a5e:	5b                   	pop    %rbx
    7a5f:	41 5c                	pop    %r12
    7a61:	41 5e                	pop    %r14
    7a63:	41 5f                	pop    %r15
    7a65:	48 8d 05 4c e1 01 00 	lea    0x1e14c(%rip),%rax        # 25bb8 <cycle_type+0x1e58>
    7a6c:	c3                   	ret
    7a6d:	0f 1f 00             	nopl   (%rax)
    7a70:	48 89 f0             	mov    %rsi,%rax
    7a73:	48 03 47 18          	add    0x18(%rdi),%rax
    7a77:	c3                   	ret
    7a78:	0f 1f 84 00 00 00 00 	nopl   0x0(%rax,%rax,1)
    7a7f:	00 
    7a80:	48 89 f0             	mov    %rsi,%rax
    7a83:	48 03 47 18          	add    0x18(%rdi),%rax
    7a87:	c3                   	ret
    7a88:	0f 1f 84 00 00 00 00 	nopl   0x0(%rax,%rax,1)
    7a8f:	00 
    7a90:	48 89 f0             	mov    %rsi,%rax
    7a93:	48 03 47 18          	add    0x18(%rdi),%rax
    7a97:	c3                   	ret
    7a98:	0f 1f 84 00 00 00 00 	nopl   0x0(%rax,%rax,1)
    7a9f:	00 
    7aa0:	41 57                	push   %r15
    7aa2:	41 56                	push   %r14
    7aa4:	41 55                	push   %r13
    7aa6:	41 54                	push   %r12
    7aa8:	53                   	push   %rbx
    7aa9:	48 89 f3             	mov    %rsi,%rbx
    7aac:	49 89 fe             	mov    %rdi,%r14
    7aaf:	48 39 77 10          	cmp    %rsi,0x10(%rdi)
    7ab3:	73 59                	jae    7b0e <Main_runtime_override_defaults_oo+0x11de>
    7ab5:	48 8d 43 ff          	lea    -0x1(%rbx),%rax
    7ab9:	41 bf 08 00 00 00    	mov    $0x8,%r15d
    7abf:	f3 48 0f bd c0       	lzcnt  %rax,%rax
    7ac4:	89 c1                	mov    %eax,%ecx
    7ac6:	f6 d9                	neg    %cl
    7ac8:	48 85 c0             	test   %rax,%rax
    7acb:	b8 01 00 00 00       	mov    $0x1,%eax
    7ad0:	c4 e2 f1 f7 c8       	shlx   %rcx,%rax,%rcx
    7ad5:	48 0f 44 c8          	cmove  %rax,%rcx
    7ad9:	48 39 d9             	cmp    %rbx,%rcx
    7adc:	48 0f 46 cb          	cmovbe %rbx,%rcx
    7ae0:	48 83 f9 09          	cmp    $0x9,%rcx
    7ae4:	4c 0f 43 f9          	cmovae %rcx,%r15
    7ae8:	4d 89 7e 10          	mov    %r15,0x10(%r14)
    7aec:	4d 8b 66 08          	mov    0x8(%r14),%r12
    7af0:	4d 8b 6e 18          	mov    0x18(%r14),%r13
    7af4:	e8 97 b5 00 00       	call   13090 <pony_ctx>
    7af9:	48 89 c7             	mov    %rax,%rdi
    7afc:	4c 89 ee             	mov    %r13,%rsi
    7aff:	4c 89 fa             	mov    %r15,%rdx
    7b02:	4c 89 e1             	mov    %r12,%rcx
    7b05:	e8 46 21 00 00       	call   9c50 <pony_realloc>
    7b0a:	49 89 46 18          	mov    %rax,0x18(%r14)
    7b0e:	49 89 5e 08          	mov    %rbx,0x8(%r14)
    7b12:	48 8d 05 9f e0 01 00 	lea    0x1e09f(%rip),%rax        # 25bb8 <cycle_type+0x1e58>
    7b19:	5b                   	pop    %rbx
    7b1a:	41 5c                	pop    %r12
    7b1c:	41 5d                	pop    %r13
    7b1e:	41 5e                	pop    %r14
    7b20:	41 5f                	pop    %r15
    7b22:	c3                   	ret
    7b23:	66 66 66 66 2e 0f 1f 	data16 data16 data16 cs nopw 0x0(%rax,%rax,1)
    7b2a:	84 00 00 00 00 00 
    7b30:	41 56                	push   %r14
    7b32:	53                   	push   %rbx
    7b33:	50                   	push   %rax
    7b34:	48 89 fb             	mov    %rdi,%rbx
    7b37:	48 c7 47 08 00 00 00 	movq   $0x0,0x8(%rdi)
    7b3e:	00 
    7b3f:	48 85 f6             	test   %rsi,%rsi
    7b42:	74 49                	je     7b8d <Main_runtime_override_defaults_oo+0x125d>
    7b44:	48 8d 46 ff          	lea    -0x1(%rsi),%rax
    7b48:	41 be 08 00 00 00    	mov    $0x8,%r14d
    7b4e:	f3 48 0f bd c0       	lzcnt  %rax,%rax
    7b53:	89 c1                	mov    %eax,%ecx
    7b55:	f6 d9                	neg    %cl
    7b57:	48 85 c0             	test   %rax,%rax
    7b5a:	b8 01 00 00 00       	mov    $0x1,%eax
    7b5f:	c4 e2 f1 f7 c8       	shlx   %rcx,%rax,%rcx
    7b64:	48 0f 44 c8          	cmove  %rax,%rcx
    7b68:	48 39 f1             	cmp    %rsi,%rcx
    7b6b:	48 0f 46 ce          	cmovbe %rsi,%rcx
    7b6f:	48 83 f9 09          	cmp    $0x9,%rcx
    7b73:	4c 0f 43 f1          	cmovae %rcx,%r14
    7b77:	4c 89 73 10          	mov    %r14,0x10(%rbx)
    7b7b:	e8 10 b5 00 00       	call   13090 <pony_ctx>
    7b80:	48 89 c7             	mov    %rax,%rdi
    7b83:	4c 89 f6             	mov    %r14,%rsi
    7b86:	e8 65 20 00 00       	call   9bf0 <pony_alloc>
    7b8b:	eb 0a                	jmp    7b97 <Main_runtime_override_defaults_oo+0x1267>
    7b8d:	31 c0                	xor    %eax,%eax
    7b8f:	48 c7 43 10 00 00 00 	movq   $0x0,0x10(%rbx)
    7b96:	00 
    7b97:	48 89 43 18          	mov    %rax,0x18(%rbx)
    7b9b:	48 83 c4 08          	add    $0x8,%rsp
    7b9f:	5b                   	pop    %rbx
    7ba0:	41 5e                	pop    %r14
    7ba2:	c3                   	ret
    7ba3:	66 66 66 66 2e 0f 1f 	data16 data16 data16 cs nopw 0x0(%rax,%rax,1)
    7baa:	84 00 00 00 00 00 
    7bb0:	48 8b 47 08          	mov    0x8(%rdi),%rax
    7bb4:	48 39 f0             	cmp    %rsi,%rax
    7bb7:	48 0f 42 f0          	cmovb  %rax,%rsi
    7bbb:	48 8d 05 f6 df 01 00 	lea    0x1dff6(%rip),%rax        # 25bb8 <cycle_type+0x1e58>
    7bc2:	48 89 77 08          	mov    %rsi,0x8(%rdi)
    7bc6:	c3                   	ret
    7bc7:	66 0f 1f 84 00 00 00 	nopw   0x0(%rax,%rax,1)
    7bce:	00 00 
    7bd0:	48 89 f8             	mov    %rdi,%rax
    7bd3:	c3                   	ret
    7bd4:	66 66 66 2e 0f 1f 84 	data16 data16 cs nopw 0x0(%rax,%rax,1)
    7bdb:	00 00 00 00 00 
    7be0:	48 83 ec 18          	sub    $0x18,%rsp
    7be4:	c5 f8 57 c0          	vxorps %xmm0,%xmm0,%xmm0
    7be8:	c5 f8 29 04 24       	vmovaps %xmm0,(%rsp)
    7bed:	48 89 f7             	mov    %rsi,%rdi
    7bf0:	48 8b 06             	mov    (%rsi),%rax
    7bf3:	ff 90 88 00 00 00    	call   *0x88(%rax)
    7bf9:	48 89 e6             	mov    %rsp,%rsi
    7bfc:	89 c7                	mov    %eax,%edi
    7bfe:	e8 0d d5 ff ff       	call   5110 <clock_gettime@plt>
    7c03:	48 8b 04 24          	mov    (%rsp),%rax
    7c07:	48 8b 54 24 08       	mov    0x8(%rsp),%rdx
    7c0c:	48 83 c4 18          	add    $0x18,%rsp
    7c10:	c3                   	ret
    7c11:	66 66 66 66 66 66 2e 	data16 data16 data16 data16 data16 cs nopw 0x0(%rax,%rax,1)
    7c18:	0f 1f 84 00 00 00 00 
    7c1f:	00 
    7c20:	48 83 ec 18          	sub    $0x18,%rsp
    7c24:	c5 f8 57 c0          	vxorps %xmm0,%xmm0,%xmm0
    7c28:	c5 f8 29 04 24       	vmovaps %xmm0,(%rsp)
    7c2d:	48 89 f7             	mov    %rsi,%rdi
    7c30:	48 8b 06             	mov    (%rsi),%rax
    7c33:	ff 90 88 00 00 00    	call   *0x88(%rax)
    7c39:	48 89 e6             	mov    %rsp,%rsi
    7c3c:	89 c7                	mov    %eax,%edi
    7c3e:	e8 cd d4 ff ff       	call   5110 <clock_gettime@plt>
    7c43:	48 8b 04 24          	mov    (%rsp),%rax
    7c47:	48 8b 54 24 08       	mov    0x8(%rsp),%rdx
    7c4c:	48 83 c4 18          	add    $0x18,%rsp
    7c50:	c3                   	ret
    7c51:	66 66 66 66 66 66 2e 	data16 data16 data16 data16 data16 cs nopw 0x0(%rax,%rax,1)
    7c58:	0f 1f 84 00 00 00 00 
    7c5f:	00 
    7c60:	48 83 ec 18          	sub    $0x18,%rsp
    7c64:	bf 01 00 00 00       	mov    $0x1,%edi
    7c69:	c5 f8 57 c0          	vxorps %xmm0,%xmm0,%xmm0
    7c6d:	48 89 e6             	mov    %rsp,%rsi
    7c70:	c5 f8 29 04 24       	vmovaps %xmm0,(%rsp)
    7c75:	e8 96 d4 ff ff       	call   5110 <clock_gettime@plt>
    7c7a:	48 b8 db 34 b6 d7 82 	movabs $0x431bde82d7b634db,%rax
    7c81:	de 1b 43 
    7c84:	48 69 0c 24 e8 03 00 	imul   $0x3e8,(%rsp),%rcx
    7c8b:	00 
    7c8c:	48 f7 6c 24 08       	imulq  0x8(%rsp)
    7c91:	48 89 d0             	mov    %rdx,%rax
    7c94:	48 c1 e8 3f          	shr    $0x3f,%rax
    7c98:	48 c1 fa 12          	sar    $0x12,%rdx
    7c9c:	48 01 d0             	add    %rdx,%rax
    7c9f:	48 01 c8             	add    %rcx,%rax
    7ca2:	48 83 c4 18          	add    $0x18,%rsp
    7ca6:	c3                   	ret
    7ca7:	66 0f 1f 84 00 00 00 	nopw   0x0(%rax,%rax,1)
    7cae:	00 00 
    7cb0:	48 83 ec 18          	sub    $0x18,%rsp
    7cb4:	bf 01 00 00 00       	mov    $0x1,%edi
    7cb9:	c5 f8 57 c0          	vxorps %xmm0,%xmm0,%xmm0
    7cbd:	48 89 e6             	mov    %rsp,%rsi
    7cc0:	c5 f8 29 04 24       	vmovaps %xmm0,(%rsp)
    7cc5:	e8 46 d4 ff ff       	call   5110 <clock_gettime@plt>
    7cca:	48 b8 db 34 b6 d7 82 	movabs $0x431bde82d7b634db,%rax
    7cd1:	de 1b 43 
    7cd4:	48 69 0c 24 e8 03 00 	imul   $0x3e8,(%rsp),%rcx
    7cdb:	00 
    7cdc:	48 f7 6c 24 08       	imulq  0x8(%rsp)
    7ce1:	48 89 d0             	mov    %rdx,%rax
    7ce4:	48 c1 e8 3f          	shr    $0x3f,%rax
    7ce8:	48 c1 fa 12          	sar    $0x12,%rdx
    7cec:	48 01 d0             	add    %rdx,%rax
    7cef:	48 01 c8             	add    %rcx,%rax
    7cf2:	48 83 c4 18          	add    $0x18,%rsp
    7cf6:	c3                   	ret
    7cf7:	66 0f 1f 84 00 00 00 	nopw   0x0(%rax,%rax,1)
    7cfe:	00 00 
    7d00:	55                   	push   %rbp
    7d01:	41 57                	push   %r15
    7d03:	41 56                	push   %r14
    7d05:	41 55                	push   %r13
    7d07:	41 54                	push   %r12
    7d09:	53                   	push   %rbx
    7d0a:	48 83 ec 18          	sub    $0x18,%rsp
    7d0e:	49 89 ce             	mov    %rcx,%r14
    7d11:	48 89 54 24 10       	mov    %rdx,0x10(%rsp)
    7d16:	89 74 24 0c          	mov    %esi,0xc(%rsp)
    7d1a:	48 89 fb             	mov    %rdi,%rbx
    7d1d:	e8 6e b3 00 00       	call   13090 <pony_ctx>
    7d22:	48 8d 0d 7f de 01 00 	lea    0x1de7f(%rip),%rcx        # 25ba8 <cycle_type+0x1e48>
    7d29:	49 89 c5             	mov    %rax,%r13
    7d2c:	48 89 4b 08          	mov    %rcx,0x8(%rbx)
    7d30:	e8 8b 7a 00 00       	call   f7c0 <pony_os_stdout_setup>
    7d35:	e8 16 7b 00 00       	call   f850 <pony_os_stdin_setup>
    7d3a:	48 8d 35 ff cc 01 00 	lea    0x1ccff(%rip),%rsi        # 24a40 <cycle_type+0xce0>
    7d41:	41 89 c4             	mov    %eax,%r12d
    7d44:	45 31 ff             	xor    %r15d,%r15d
    7d47:	4c 89 ef             	mov    %r13,%rdi
    7d4a:	31 d2                	xor    %edx,%edx
    7d4c:	e8 8f 1a 00 00       	call   97e0 <pony_create>
    7d51:	be 01 00 00 00       	mov    $0x1,%esi
    7d56:	31 ff                	xor    %edi,%edi
    7d58:	48 89 c5             	mov    %rax,%rbp
    7d5b:	41 80 e4 01          	and    $0x1,%r12b
    7d5f:	e8 4c 1b 00 00       	call   98b0 <pony_alloc_msg>
    7d64:	41 b8 01 00 00 00    	mov    $0x1,%r8d
    7d6a:	44 88 60 10          	mov    %r12b,0x10(%rax)
    7d6e:	4c 89 ef             	mov    %r13,%rdi
    7d71:	48 89 ee             	mov    %rbp,%rsi
    7d74:	48 89 c2             	mov    %rax,%rdx
    7d77:	48 89 c1             	mov    %rax,%rcx
    7d7a:	e8 11 1c 00 00       	call   9990 <pony_sendv_single>
    7d7f:	4c 8d 25 3a c6 01 00 	lea    0x1c63a(%rip),%r12        # 243c0 <cycle_type+0x660>
    7d86:	48 89 6b 10          	mov    %rbp,0x10(%rbx)
    7d8a:	4c 89 ef             	mov    %r13,%rdi
    7d8d:	31 d2                	xor    %edx,%edx
    7d8f:	4c 89 e6             	mov    %r12,%rsi
    7d92:	e8 49 1a 00 00       	call   97e0 <pony_create>
    7d97:	be 02 00 00 00       	mov    $0x2,%esi
    7d9c:	31 ff                	xor    %edi,%edi
    7d9e:	48 89 c5             	mov    %rax,%rbp
    7da1:	e8 0a 1b 00 00       	call   98b0 <pony_alloc_msg>
    7da6:	41 b8 01 00 00 00    	mov    $0x1,%r8d
    7dac:	4c 89 ef             	mov    %r13,%rdi
    7daf:	48 89 ee             	mov    %rbp,%rsi
    7db2:	48 89 c2             	mov    %rax,%rdx
    7db5:	48 89 c1             	mov    %rax,%rcx
    7db8:	e8 d3 1b 00 00       	call   9990 <pony_sendv_single>
    7dbd:	48 89 6b 18          	mov    %rbp,0x18(%rbx)
    7dc1:	4c 89 ef             	mov    %r13,%rdi
    7dc4:	4c 89 e6             	mov    %r12,%rsi
    7dc7:	31 d2                	xor    %edx,%edx
    7dc9:	e8 12 1a 00 00       	call   97e0 <pony_create>
    7dce:	49 89 c4             	mov    %rax,%r12
    7dd1:	31 ff                	xor    %edi,%edi
    7dd3:	31 f6                	xor    %esi,%esi
    7dd5:	e8 d6 1a 00 00       	call   98b0 <pony_alloc_msg>
    7dda:	41 b8 01 00 00 00    	mov    $0x1,%r8d
    7de0:	4c 89 ef             	mov    %r13,%rdi
    7de3:	4c 89 e6             	mov    %r12,%rsi
    7de6:	48 89 c2             	mov    %rax,%rdx
    7de9:	48 89 c1             	mov    %rax,%rcx
    7dec:	e8 9f 1b 00 00       	call   9990 <pony_sendv_single>
    7df1:	8b 54 24 0c          	mov    0xc(%rsp),%edx
    7df5:	48 8b 74 24 10       	mov    0x10(%rsp),%rsi
    7dfa:	4c 89 63 20          	mov    %r12,0x20(%rbx)
    7dfe:	e8 8d 00 00 00       	call   7e90 <Main_runtime_override_defaults_oo+0x1560>
    7e03:	48 89 43 28          	mov    %rax,0x28(%rbx)
    7e07:	4d 85 f6             	test   %r14,%r14
    7e0a:	74 28                	je     7e34 <Main_runtime_override_defaults_oo+0x1504>
    7e0c:	49 83 3e 00          	cmpq   $0x0,(%r14)
    7e10:	74 1f                	je     7e31 <Main_runtime_override_defaults_oo+0x1501>
    7e12:	31 c0                	xor    %eax,%eax
    7e14:	66 66 66 2e 0f 1f 84 	data16 data16 cs nopw 0x0(%rax,%rax,1)
    7e1b:	00 00 00 00 00 
    7e20:	49 83 7c c6 08 00    	cmpq   $0x0,0x8(%r14,%rax,8)
    7e26:	4c 8d 78 01          	lea    0x1(%rax),%r15
    7e2a:	4c 89 f8             	mov    %r15,%rax
    7e2d:	75 f1                	jne    7e20 <Main_runtime_override_defaults_oo+0x14f0>
    7e2f:	eb 03                	jmp    7e34 <Main_runtime_override_defaults_oo+0x1504>
    7e31:	45 31 ff             	xor    %r15d,%r15d
    7e34:	4c 89 f6             	mov    %r14,%rsi
    7e37:	4c 89 fa             	mov    %r15,%rdx
    7e3a:	e8 51 00 00 00       	call   7e90 <Main_runtime_override_defaults_oo+0x1560>
    7e3f:	48 8d 0d 82 dd 01 00 	lea    0x1dd82(%rip),%rcx        # 25bc8 <cycle_type+0x1e68>
    7e46:	48 89 43 30          	mov    %rax,0x30(%rbx)
    7e4a:	48 89 4b 38          	mov    %rcx,0x38(%rbx)
    7e4e:	48 83 c4 18          	add    $0x18,%rsp
    7e52:	5b                   	pop    %rbx
    7e53:	41 5c                	pop    %r12
    7e55:	41 5d                	pop    %r13
    7e57:	41 5e                	pop    %r14
    7e59:	41 5f                	pop    %r15
    7e5b:	5d                   	pop    %rbp
    7e5c:	c3                   	ret
    7e5d:	0f 1f 00             	nopl   (%rax)
    7e60:	48 85 f6             	test   %rsi,%rsi
    7e63:	74 1b                	je     7e80 <Main_runtime_override_defaults_oo+0x1550>
    7e65:	48 83 3e 00          	cmpq   $0x0,(%rsi)
    7e69:	74 15                	je     7e80 <Main_runtime_override_defaults_oo+0x1550>
    7e6b:	31 c9                	xor    %ecx,%ecx
    7e6d:	0f 1f 00             	nopl   (%rax)
    7e70:	48 83 7c ce 08 00    	cmpq   $0x0,0x8(%rsi,%rcx,8)
    7e76:	48 8d 41 01          	lea    0x1(%rcx),%rax
    7e7a:	48 89 c1             	mov    %rax,%rcx
    7e7d:	75 f1                	jne    7e70 <Main_runtime_override_defaults_oo+0x1540>
    7e7f:	c3                   	ret
    7e80:	31 c0                	xor    %eax,%eax
    7e82:	c3                   	ret
    7e83:	66 66 66 66 2e 0f 1f 	data16 data16 data16 cs nopw 0x0(%rax,%rax,1)
    7e8a:	84 00 00 00 00 00 
    7e90:	55                   	push   %rbp
    7e91:	41 57                	push   %r15
    7e93:	41 56                	push   %r14
    7e95:	41 55                	push   %r13
    7e97:	41 54                	push   %r12
    7e99:	53                   	push   %rbx
    7e9a:	48 83 ec 18          	sub    $0x18,%rsp
    7e9e:	49 89 d4             	mov    %rdx,%r12
    7ea1:	48 89 74 24 10       	mov    %rsi,0x10(%rsp)
    7ea6:	e8 e5 b1 00 00       	call   13090 <pony_ctx>
    7eab:	48 89 c3             	mov    %rax,%rbx
    7eae:	48 89 c7             	mov    %rax,%rdi
    7eb1:	31 f6                	xor    %esi,%esi
    7eb3:	e8 58 1d 00 00       	call   9c10 <pony_alloc_small>
    7eb8:	48 8d 0d 71 c7 01 00 	lea    0x1c771(%rip),%rcx        # 24630 <cycle_type+0x8d0>
    7ebf:	48 89 c7             	mov    %rax,%rdi
    7ec2:	48 89 0f             	mov    %rcx,(%rdi)
    7ec5:	48 c7 47 08 00 00 00 	movq   $0x0,0x8(%rdi)
    7ecc:	00 
    7ecd:	4d 85 e4             	test   %r12,%r12
    7ed0:	0f 84 b9 01 00 00    	je     808f <Main_runtime_override_defaults_oo+0x175f>
    7ed6:	49 8d 44 24 ff       	lea    -0x1(%r12),%rax
    7edb:	48 89 3c 24          	mov    %rdi,(%rsp)
    7edf:	48 89 5c 24 08       	mov    %rbx,0x8(%rsp)
    7ee4:	f3 48 0f bd c0       	lzcnt  %rax,%rax
    7ee9:	89 c1                	mov    %eax,%ecx
    7eeb:	f6 d9                	neg    %cl
    7eed:	48 85 c0             	test   %rax,%rax
    7ef0:	b8 01 00 00 00       	mov    $0x1,%eax
    7ef5:	c4 e2 f1 f7 f0       	shlx   %rcx,%rax,%rsi
    7efa:	48 0f 44 f0          	cmove  %rax,%rsi
    7efe:	b8 08 00 00 00       	mov    $0x8,%eax
    7f03:	4c 39 e6             	cmp    %r12,%rsi
    7f06:	49 0f 46 f4          	cmovbe %r12,%rsi
    7f0a:	48 83 fe 09          	cmp    $0x9,%rsi
    7f0e:	48 0f 42 f0          	cmovb  %rax,%rsi
    7f12:	48 89 77 10          	mov    %rsi,0x10(%rdi)
    7f16:	48 c1 e6 03          	shl    $0x3,%rsi
    7f1a:	48 89 df             	mov    %rbx,%rdi
    7f1d:	e8 ce 1c 00 00       	call   9bf0 <pony_alloc>
    7f22:	48 8b 0c 24          	mov    (%rsp),%rcx
    7f26:	49 89 c5             	mov    %rax,%r13
    7f29:	45 31 ff             	xor    %r15d,%r15d
    7f2c:	4c 89 69 18          	mov    %r13,0x18(%rcx)
    7f30:	eb 1f                	jmp    7f51 <Main_runtime_override_defaults_oo+0x1621>
    7f32:	66 66 66 66 66 2e 0f 	data16 data16 data16 data16 cs nopw 0x0(%rax,%rax,1)
    7f39:	1f 84 00 00 00 00 00 
    7f40:	4b 89 6c fd 00       	mov    %rbp,0x0(%r13,%r15,8)
    7f45:	49 89 df             	mov    %rbx,%r15
    7f48:	4c 39 e3             	cmp    %r12,%rbx
    7f4b:	0f 84 34 01 00 00    	je     8085 <Main_runtime_override_defaults_oo+0x1755>
    7f51:	48 8b 44 24 10       	mov    0x10(%rsp),%rax
    7f56:	48 8b 5c 24 08       	mov    0x8(%rsp),%rbx
    7f5b:	31 f6                	xor    %esi,%esi
    7f5d:	4e 8b 34 f8          	mov    (%rax,%r15,8),%r14
    7f61:	48 89 df             	mov    %rbx,%rdi
    7f64:	e8 a7 1c 00 00       	call   9c10 <pony_alloc_small>
    7f69:	48 8d 0d 80 c5 01 00 	lea    0x1c580(%rip),%rcx        # 244f0 <cycle_type+0x790>
    7f70:	48 89 c5             	mov    %rax,%rbp
    7f73:	48 89 4d 00          	mov    %rcx,0x0(%rbp)
    7f77:	4d 85 f6             	test   %r14,%r14
    7f7a:	74 34                	je     7fb0 <Main_runtime_override_defaults_oo+0x1680>
    7f7c:	41 80 3e 00          	cmpb   $0x0,(%r14)
    7f80:	74 6e                	je     7ff0 <Main_runtime_override_defaults_oo+0x16c0>
    7f82:	31 c0                	xor    %eax,%eax
    7f84:	66 66 66 2e 0f 1f 84 	data16 data16 cs nopw 0x0(%rax,%rax,1)
    7f8b:	00 00 00 00 00 
    7f90:	41 80 7c 06 01 00    	cmpb   $0x0,0x1(%r14,%rax,1)
    7f96:	48 8d 58 01          	lea    0x1(%rax),%rbx
    7f9a:	48 89 d8             	mov    %rbx,%rax
    7f9d:	75 f1                	jne    7f90 <Main_runtime_override_defaults_oo+0x1660>
    7f9f:	eb 51                	jmp    7ff2 <Main_runtime_override_defaults_oo+0x16c2>
    7fa1:	66 66 66 66 66 66 2e 	data16 data16 data16 data16 data16 cs nopw 0x0(%rax,%rax,1)
    7fa8:	0f 1f 84 00 00 00 00 
    7faf:	00 
    7fb0:	be 01 00 00 00       	mov    $0x1,%esi
    7fb5:	48 c7 45 08 00 00 00 	movq   $0x0,0x8(%rbp)
    7fbc:	00 
    7fbd:	48 89 df             	mov    %rbx,%rdi
    7fc0:	48 c7 45 10 01 00 00 	movq   $0x1,0x10(%rbp)
    7fc7:	00 
    7fc8:	e8 23 1c 00 00       	call   9bf0 <pony_alloc>
    7fcd:	48 89 45 18          	mov    %rax,0x18(%rbp)
    7fd1:	c6 00 00             	movb   $0x0,(%rax)
    7fd4:	48 8b 3c 24          	mov    (%rsp),%rdi
    7fd8:	49 8d 5f 01          	lea    0x1(%r15),%rbx
    7fdc:	48 39 5f 10          	cmp    %rbx,0x10(%rdi)
    7fe0:	0f 83 5a ff ff ff    	jae    7f40 <Main_runtime_override_defaults_oo+0x1610>
    7fe6:	eb 46                	jmp    802e <Main_runtime_override_defaults_oo+0x16fe>
    7fe8:	0f 1f 84 00 00 00 00 	nopl   0x0(%rax,%rax,1)
    7fef:	00 
    7ff0:	31 db                	xor    %ebx,%ebx
    7ff2:	48 8b 7c 24 08       	mov    0x8(%rsp),%rdi
    7ff7:	48 89 5d 08          	mov    %rbx,0x8(%rbp)
    7ffb:	48 ff c3             	inc    %rbx
    7ffe:	48 89 de             	mov    %rbx,%rsi
    8001:	48 89 5d 10          	mov    %rbx,0x10(%rbp)
    8005:	e8 e6 1b 00 00       	call   9bf0 <pony_alloc>
    800a:	48 89 45 18          	mov    %rax,0x18(%rbp)
    800e:	48 89 c7             	mov    %rax,%rdi
    8011:	4c 89 f6             	mov    %r14,%rsi
    8014:	48 89 da             	mov    %rbx,%rdx
    8017:	e8 b4 d5 ff ff       	call   55d0 <memcpy@plt>
    801c:	48 8b 3c 24          	mov    (%rsp),%rdi
    8020:	49 8d 5f 01          	lea    0x1(%r15),%rbx
    8024:	48 39 5f 10          	cmp    %rbx,0x10(%rdi)
    8028:	0f 83 12 ff ff ff    	jae    7f40 <Main_runtime_override_defaults_oo+0x1610>
    802e:	f3 49 0f bd c7       	lzcnt  %r15,%rax
    8033:	4c 89 ee             	mov    %r13,%rsi
    8036:	89 c1                	mov    %eax,%ecx
    8038:	f6 d9                	neg    %cl
    803a:	48 85 c0             	test   %rax,%rax
    803d:	b8 01 00 00 00       	mov    $0x1,%eax
    8042:	c4 e2 f1 f7 d0       	shlx   %rcx,%rax,%rdx
    8047:	4a 8d 0c fd 00 00 00 	lea    0x0(,%r15,8),%rcx
    804e:	00 
    804f:	48 0f 44 d0          	cmove  %rax,%rdx
    8053:	b8 08 00 00 00       	mov    $0x8,%eax
    8058:	48 39 da             	cmp    %rbx,%rdx
    805b:	48 0f 46 d3          	cmovbe %rbx,%rdx
    805f:	48 83 fa 09          	cmp    $0x9,%rdx
    8063:	48 0f 42 d0          	cmovb  %rax,%rdx
    8067:	48 89 57 10          	mov    %rdx,0x10(%rdi)
    806b:	48 8b 7c 24 08       	mov    0x8(%rsp),%rdi
    8070:	48 c1 e2 03          	shl    $0x3,%rdx
    8074:	e8 d7 1b 00 00       	call   9c50 <pony_realloc>
    8079:	48 8b 3c 24          	mov    (%rsp),%rdi
    807d:	49 89 c5             	mov    %rax,%r13
    8080:	e9 bb fe ff ff       	jmp    7f40 <Main_runtime_override_defaults_oo+0x1610>
    8085:	48 89 5f 08          	mov    %rbx,0x8(%rdi)
    8089:	4c 89 6f 18          	mov    %r13,0x18(%rdi)
    808d:	eb 09                	jmp    8098 <Main_runtime_override_defaults_oo+0x1768>
    808f:	c5 f8 57 c0          	vxorps %xmm0,%xmm0,%xmm0
    8093:	c5 f8 11 47 10       	vmovups %xmm0,0x10(%rdi)
    8098:	48 89 f8             	mov    %rdi,%rax
    809b:	48 83 c4 18          	add    $0x18,%rsp
    809f:	5b                   	pop    %rbx
    80a0:	41 5c                	pop    %r12
    80a2:	41 5d                	pop    %r13
    80a4:	41 5e                	pop    %r14
    80a6:	41 5f                	pop    %r15
    80a8:	5d                   	pop    %rbp
    80a9:	c3                   	ret
    80aa:	66 0f 1f 44 00 00    	nopw   0x0(%rax,%rax,1)
    80b0:	48 89 f8             	mov    %rdi,%rax
    80b3:	c3                   	ret
    80b4:	66 66 66 2e 0f 1f 84 	data16 data16 cs nopw 0x0(%rax,%rax,1)
    80bb:	00 00 00 00 00 
    80c0:	31 c0                	xor    %eax,%eax
    80c2:	c3                   	ret
    80c3:	66 66 66 66 2e 0f 1f 	data16 data16 data16 cs nopw 0x0(%rax,%rax,1)
    80ca:	84 00 00 00 00 00 
    80d0:	31 c0                	xor    %eax,%eax
    80d2:	c3                   	ret
    80d3:	66 66 66 66 2e 0f 1f 	data16 data16 data16 cs nopw 0x0(%rax,%rax,1)
    80da:	84 00 00 00 00 00 
    80e0:	48 89 f8             	mov    %rdi,%rax
    80e3:	c3                   	ret
    80e4:	66 66 66 2e 0f 1f 84 	data16 data16 cs nopw 0x0(%rax,%rax,1)
    80eb:	00 00 00 00 00 
    80f0:	89 f0                	mov    %esi,%eax
    80f2:	24 01                	and    $0x1,%al
    80f4:	c3                   	ret
    80f5:	66 66 2e 0f 1f 84 00 	data16 cs nopw 0x0(%rax,%rax,1)
    80fc:	00 00 00 00 
    8100:	89 f0                	mov    %esi,%eax
    8102:	24 01                	and    $0x1,%al
    8104:	c3                   	ret
    8105:	66 66 2e 0f 1f 84 00 	data16 cs nopw 0x0(%rax,%rax,1)
    810c:	00 00 00 00 
    8110:	85 f6                	test   %esi,%esi
    8112:	0f 94 c0             	sete   %al
    8115:	c3                   	ret
    8116:	66 2e 0f 1f 84 00 00 	cs nopw 0x0(%rax,%rax,1)
    811d:	00 00 00 
    8120:	85 f6                	test   %esi,%esi
    8122:	0f 94 c0             	sete   %al
    8125:	c3                   	ret
    8126:	66 2e 0f 1f 84 00 00 	cs nopw 0x0(%rax,%rax,1)
    812d:	00 00 00 
    8130:	48 89 f8             	mov    %rdi,%rax
    8133:	c3                   	ret
    8134:	66 66 66 2e 0f 1f 84 	data16 data16 cs nopw 0x0(%rax,%rax,1)
    813b:	00 00 00 00 00 
    8140:	b8 01 00 00 00       	mov    $0x1,%eax
    8145:	c3                   	ret
    8146:	66 2e 0f 1f 84 00 00 	cs nopw 0x0(%rax,%rax,1)
    814d:	00 00 00 
    8150:	b8 01 00 00 00       	mov    $0x1,%eax
    8155:	c3                   	ret
    8156:	66 2e 0f 1f 84 00 00 	cs nopw 0x0(%rax,%rax,1)
    815d:	00 00 00 
    8160:	b8 01 00 00 00       	mov    $0x1,%eax
    8165:	c3                   	ret
    8166:	66 2e 0f 1f 84 00 00 	cs nopw 0x0(%rax,%rax,1)
    816d:	00 00 00 
    8170:	48 89 f8             	mov    %rdi,%rax
    8173:	c3                   	ret
    8174:	66 66 66 2e 0f 1f 84 	data16 data16 cs nopw 0x0(%rax,%rax,1)
    817b:	00 00 00 00 00 
    8180:	48 89 f8             	mov    %rdi,%rax
    8183:	c3                   	ret
    8184:	66 66 66 2e 0f 1f 84 	data16 data16 cs nopw 0x0(%rax,%rax,1)
    818b:	00 00 00 00 00 
    8190:	55                   	push   %rbp
    8191:	41 57                	push   %r15
    8193:	41 56                	push   %r14
    8195:	41 55                	push   %r13
    8197:	41 54                	push   %r12
    8199:	53                   	push   %rbx
    819a:	50                   	push   %rax
    819b:	48 89 f3             	mov    %rsi,%rbx
    819e:	e8 ed ae 00 00       	call   13090 <pony_ctx>
    81a3:	49 89 de             	mov    %rbx,%r14
    81a6:	49 ff c6             	inc    %r14
    81a9:	0f 84 bf 00 00 00    	je     826e <Main_runtime_override_defaults_oo+0x193e>
    81af:	f3 48 0f bd cb       	lzcnt  %rbx,%rcx
    81b4:	be 08 00 00 00       	mov    $0x8,%esi
    81b9:	48 89 c7             	mov    %rax,%rdi
    81bc:	89 ca                	mov    %ecx,%edx
    81be:	f6 da                	neg    %dl
    81c0:	48 85 c9             	test   %rcx,%rcx
    81c3:	b9 01 00 00 00       	mov    $0x1,%ecx
    81c8:	c4 e2 e9 f7 d1       	shlx   %rdx,%rcx,%rdx
    81cd:	48 0f 44 d1          	cmove  %rcx,%rdx
    81d1:	4c 39 f2             	cmp    %r14,%rdx
    81d4:	49 0f 46 d6          	cmovbe %r14,%rdx
    81d8:	48 83 fa 09          	cmp    $0x9,%rdx
    81dc:	48 0f 43 f2          	cmovae %rdx,%rsi
    81e0:	e8 0b 1a 00 00       	call   9bf0 <pony_alloc>
    81e5:	be 01 00 00 00       	mov    $0x1,%esi
    81ea:	49 89 c7             	mov    %rax,%r15
    81ed:	48 89 c7             	mov    %rax,%rdi
    81f0:	4c 89 f2             	mov    %r14,%rdx
    81f3:	e8 78 ce ff ff       	call   5070 <memset@plt>
    81f8:	41 c6 07 00          	movb   $0x0,(%r15)
    81fc:	48 85 db             	test   %rbx,%rbx
    81ff:	74 75                	je     8276 <Main_runtime_override_defaults_oo+0x1946>
    8201:	41 c6 47 01 00       	movb   $0x0,0x1(%r15)
    8206:	48 83 fb 04          	cmp    $0x4,%rbx
    820a:	72 75                	jb     8281 <Main_runtime_override_defaults_oo+0x1951>
    820c:	4d 8d 67 04          	lea    0x4(%r15),%r12
    8210:	41 bd 02 00 00 00    	mov    $0x2,%r13d
    8216:	bd 05 00 00 00       	mov    $0x5,%ebp
    821b:	eb 19                	jmp    8236 <Main_runtime_override_defaults_oo+0x1906>
    821d:	0f 1f 00             	nopl   (%rax)
    8220:	49 ff c5             	inc    %r13
    8223:	49 01 ec             	add    %rbp,%r12
    8226:	48 83 c5 02          	add    $0x2,%rbp
    822a:	4c 89 e8             	mov    %r13,%rax
    822d:	49 0f af c5          	imul   %r13,%rax
    8231:	48 39 d8             	cmp    %rbx,%rax
    8234:	77 4b                	ja     8281 <Main_runtime_override_defaults_oo+0x1951>
    8236:	4d 39 ee             	cmp    %r13,%r14
    8239:	76 2a                	jbe    8265 <Main_runtime_override_defaults_oo+0x1935>
    823b:	43 f6 04 2f 01       	testb  $0x1,(%r15,%r13,1)
    8240:	74 de                	je     8220 <Main_runtime_override_defaults_oo+0x18f0>
    8242:	4c 89 e8             	mov    %r13,%rax
    8245:	49 0f af c5          	imul   %r13,%rax
    8249:	4c 89 e1             	mov    %r12,%rcx
    824c:	0f 1f 40 00          	nopl   0x0(%rax)
    8250:	49 39 c6             	cmp    %rax,%r14
    8253:	76 10                	jbe    8265 <Main_runtime_override_defaults_oo+0x1935>
    8255:	c6 01 00             	movb   $0x0,(%rcx)
    8258:	4c 01 e8             	add    %r13,%rax
    825b:	4c 01 e9             	add    %r13,%rcx
    825e:	48 39 d8             	cmp    %rbx,%rax
    8261:	76 ed                	jbe    8250 <Main_runtime_override_defaults_oo+0x1920>
    8263:	eb bb                	jmp    8220 <Main_runtime_override_defaults_oo+0x18f0>
    8265:	e8 56 72 00 00       	call   f4c0 <pony_error>
    826a:	eb 0f                	jmp    827b <Main_runtime_override_defaults_oo+0x194b>
    826c:	eb b2                	jmp    8220 <Main_runtime_override_defaults_oo+0x18f0>
    826e:	45 31 ff             	xor    %r15d,%r15d
    8271:	e8 4a 72 00 00       	call   f4c0 <pony_error>
    8276:	e8 45 72 00 00       	call   f4c0 <pony_error>
    827b:	48 83 fb 04          	cmp    $0x4,%rbx
    827f:	73 8b                	jae    820c <Main_runtime_override_defaults_oo+0x18dc>
    8281:	48 83 fb 02          	cmp    $0x2,%rbx
    8285:	72 3a                	jb     82c1 <Main_runtime_override_defaults_oo+0x1991>
    8287:	41 bd 02 00 00 00    	mov    $0x2,%r13d
    828d:	45 31 e4             	xor    %r12d,%r12d
    8290:	4d 39 ee             	cmp    %r13,%r14
    8293:	76 1b                	jbe    82b0 <Main_runtime_override_defaults_oo+0x1980>
    8295:	43 f6 04 2f 01       	testb  $0x1,(%r15,%r13,1)
    829a:	b8 00 00 00 00       	mov    $0x0,%eax
    829f:	49 0f 45 c5          	cmovne %r13,%rax
    82a3:	49 01 c4             	add    %rax,%r12
    82a6:	49 ff c5             	inc    %r13
    82a9:	49 39 dd             	cmp    %rbx,%r13
    82ac:	76 e2                	jbe    8290 <Main_runtime_override_defaults_oo+0x1960>
    82ae:	eb 14                	jmp    82c4 <Main_runtime_override_defaults_oo+0x1994>
    82b0:	e8 0b 72 00 00       	call   f4c0 <pony_error>
    82b5:	eb 1f                	jmp    82d6 <Main_runtime_override_defaults_oo+0x19a6>
    82b7:	49 ff c5             	inc    %r13
    82ba:	49 39 dd             	cmp    %rbx,%r13
    82bd:	76 d1                	jbe    8290 <Main_runtime_override_defaults_oo+0x1960>
    82bf:	eb 03                	jmp    82c4 <Main_runtime_override_defaults_oo+0x1994>
    82c1:	45 31 e4             	xor    %r12d,%r12d
    82c4:	4c 89 e0             	mov    %r12,%rax
    82c7:	48 83 c4 08          	add    $0x8,%rsp
    82cb:	5b                   	pop    %rbx
    82cc:	41 5c                	pop    %r12
    82ce:	41 5d                	pop    %r13
    82d0:	41 5e                	pop    %r14
    82d2:	41 5f                	pop    %r15
    82d4:	5d                   	pop    %rbp
    82d5:	c3                   	ret
    82d6:	66 2e 0f 1f 84 00 00 	cs nopw 0x0(%rax,%rax,1)
    82dd:	00 00 00 
    82e0:	55                   	push   %rbp
    82e1:	41 57                	push   %r15
    82e3:	41 56                	push   %r14
    82e5:	41 55                	push   %r13
    82e7:	41 54                	push   %r12
    82e9:	53                   	push   %rbx
    82ea:	50                   	push   %rax
    82eb:	48 89 f3             	mov    %rsi,%rbx
    82ee:	e8 9d ad 00 00       	call   13090 <pony_ctx>
    82f3:	49 89 de             	mov    %rbx,%r14
    82f6:	49 ff c6             	inc    %r14
    82f9:	0f 84 bf 00 00 00    	je     83be <Main_runtime_override_defaults_oo+0x1a8e>
    82ff:	f3 48 0f bd cb       	lzcnt  %rbx,%rcx
    8304:	be 08 00 00 00       	mov    $0x8,%esi
    8309:	48 89 c7             	mov    %rax,%rdi
    830c:	89 ca                	mov    %ecx,%edx
    830e:	f6 da                	neg    %dl
    8310:	48 85 c9             	test   %rcx,%rcx
    8313:	b9 01 00 00 00       	mov    $0x1,%ecx
    8318:	c4 e2 e9 f7 d1       	shlx   %rdx,%rcx,%rdx
    831d:	48 0f 44 d1          	cmove  %rcx,%rdx
    8321:	4c 39 f2             	cmp    %r14,%rdx
    8324:	49 0f 46 d6          	cmovbe %r14,%rdx
    8328:	48 83 fa 09          	cmp    $0x9,%rdx
    832c:	48 0f 43 f2          	cmovae %rdx,%rsi
    8330:	e8 bb 18 00 00       	call   9bf0 <pony_alloc>
    8335:	be 01 00 00 00       	mov    $0x1,%esi
    833a:	49 89 c7             	mov    %rax,%r15
    833d:	48 89 c7             	mov    %rax,%rdi
    8340:	4c 89 f2             	mov    %r14,%rdx
    8343:	e8 28 cd ff ff       	call   5070 <memset@plt>
    8348:	41 c6 07 00          	movb   $0x0,(%r15)
    834c:	48 85 db             	test   %rbx,%rbx
    834f:	74 75                	je     83c6 <Main_runtime_override_defaults_oo+0x1a96>
    8351:	41 c6 47 01 00       	movb   $0x0,0x1(%r15)
    8356:	48 83 fb 04          	cmp    $0x4,%rbx
    835a:	72 75                	jb     83d1 <Main_runtime_override_defaults_oo+0x1aa1>
    835c:	4d 8d 67 04          	lea    0x4(%r15),%r12
    8360:	41 bd 02 00 00 00    	mov    $0x2,%r13d
    8366:	bd 05 00 00 00       	mov    $0x5,%ebp
    836b:	eb 19                	jmp    8386 <Main_runtime_override_defaults_oo+0x1a56>
    836d:	0f 1f 00             	nopl   (%rax)
    8370:	49 ff c5             	inc    %r13
    8373:	49 01 ec             	add    %rbp,%r12
    8376:	48 83 c5 02          	add    $0x2,%rbp
    837a:	4c 89 e8             	mov    %r13,%rax
    837d:	49 0f af c5          	imul   %r13,%rax
    8381:	48 39 d8             	cmp    %rbx,%rax
    8384:	77 4b                	ja     83d1 <Main_runtime_override_defaults_oo+0x1aa1>
    8386:	4d 39 ee             	cmp    %r13,%r14
    8389:	76 2a                	jbe    83b5 <Main_runtime_override_defaults_oo+0x1a85>
    838b:	43 f6 04 2f 01       	testb  $0x1,(%r15,%r13,1)
    8390:	74 de                	je     8370 <Main_runtime_override_defaults_oo+0x1a40>
    8392:	4c 89 e8             	mov    %r13,%rax
    8395:	49 0f af c5          	imul   %r13,%rax
    8399:	4c 89 e1             	mov    %r12,%rcx
    839c:	0f 1f 40 00          	nopl   0x0(%rax)
    83a0:	49 39 c6             	cmp    %rax,%r14
    83a3:	76 10                	jbe    83b5 <Main_runtime_override_defaults_oo+0x1a85>
    83a5:	c6 01 00             	movb   $0x0,(%rcx)
    83a8:	4c 01 e8             	add    %r13,%rax
    83ab:	4c 01 e9             	add    %r13,%rcx
    83ae:	48 39 d8             	cmp    %rbx,%rax
    83b1:	76 ed                	jbe    83a0 <Main_runtime_override_defaults_oo+0x1a70>
    83b3:	eb bb                	jmp    8370 <Main_runtime_override_defaults_oo+0x1a40>
    83b5:	e8 06 71 00 00       	call   f4c0 <pony_error>
    83ba:	eb 0f                	jmp    83cb <Main_runtime_override_defaults_oo+0x1a9b>
    83bc:	eb b2                	jmp    8370 <Main_runtime_override_defaults_oo+0x1a40>
    83be:	45 31 ff             	xor    %r15d,%r15d
    83c1:	e8 fa 70 00 00       	call   f4c0 <pony_error>
    83c6:	e8 f5 70 00 00       	call   f4c0 <pony_error>
    83cb:	48 83 fb 04          	cmp    $0x4,%rbx
    83cf:	73 8b                	jae    835c <Main_runtime_override_defaults_oo+0x1a2c>
    83d1:	48 83 fb 02          	cmp    $0x2,%rbx
    83d5:	72 3a                	jb     8411 <Main_runtime_override_defaults_oo+0x1ae1>
    83d7:	41 bd 02 00 00 00    	mov    $0x2,%r13d
    83dd:	45 31 e4             	xor    %r12d,%r12d
    83e0:	4d 39 ee             	cmp    %r13,%r14
    83e3:	76 1b                	jbe    8400 <Main_runtime_override_defaults_oo+0x1ad0>
    83e5:	43 f6 04 2f 01       	testb  $0x1,(%r15,%r13,1)
    83ea:	b8 00 00 00 00       	mov    $0x0,%eax
    83ef:	49 0f 45 c5          	cmovne %r13,%rax
    83f3:	49 01 c4             	add    %rax,%r12
    83f6:	49 ff c5             	inc    %r13
    83f9:	49 39 dd             	cmp    %rbx,%r13
    83fc:	76 e2                	jbe    83e0 <Main_runtime_override_defaults_oo+0x1ab0>
    83fe:	eb 14                	jmp    8414 <Main_runtime_override_defaults_oo+0x1ae4>
    8400:	e8 bb 70 00 00       	call   f4c0 <pony_error>
    8405:	eb 1f                	jmp    8426 <Main_runtime_override_defaults_oo+0x1af6>
    8407:	49 ff c5             	inc    %r13
    840a:	49 39 dd             	cmp    %rbx,%r13
    840d:	76 d1                	jbe    83e0 <Main_runtime_override_defaults_oo+0x1ab0>
    840f:	eb 03                	jmp    8414 <Main_runtime_override_defaults_oo+0x1ae4>
    8411:	45 31 e4             	xor    %r12d,%r12d
    8414:	4c 89 e0             	mov    %r12,%rax
    8417:	48 83 c4 08          	add    $0x8,%rsp
    841b:	5b                   	pop    %rbx
    841c:	41 5c                	pop    %r12
    841e:	41 5d                	pop    %r13
    8420:	41 5e                	pop    %r14
    8422:	41 5f                	pop    %r15
    8424:	5d                   	pop    %rbp
    8425:	c3                   	ret
    8426:	66 2e 0f 1f 84 00 00 	cs nopw 0x0(%rax,%rax,1)
    842d:	00 00 00 
    8430:	48 39 77 08          	cmp    %rsi,0x8(%rdi)
    8434:	76 0b                	jbe    8441 <Main_runtime_override_defaults_oo+0x1b11>
    8436:	48 8b 47 18          	mov    0x18(%rdi),%rax
    843a:	0f b6 04 30          	movzbl (%rax,%rsi,1),%eax
    843e:	24 01                	and    $0x1,%al
    8440:	c3                   	ret
    8441:	50                   	push   %rax
    8442:	e8 79 70 00 00       	call   f4c0 <pony_error>
    8447:	66 0f 1f 84 00 00 00 	nopw   0x0(%rax,%rax,1)
    844e:	00 00 
    8450:	48 39 77 08          	cmp    %rsi,0x8(%rdi)
    8454:	76 0b                	jbe    8461 <Main_runtime_override_defaults_oo+0x1b31>
    8456:	48 8b 47 18          	mov    0x18(%rdi),%rax
    845a:	0f b6 04 30          	movzbl (%rax,%rsi,1),%eax
    845e:	24 01                	and    $0x1,%al
    8460:	c3                   	ret
    8461:	50                   	push   %rax
    8462:	e8 59 70 00 00       	call   f4c0 <pony_error>
    8467:	66 0f 1f 84 00 00 00 	nopw   0x0(%rax,%rax,1)
    846e:	00 00 
    8470:	48 39 77 08          	cmp    %rsi,0x8(%rdi)
    8474:	76 0b                	jbe    8481 <Main_runtime_override_defaults_oo+0x1b51>
    8476:	48 8b 47 18          	mov    0x18(%rdi),%rax
    847a:	0f b6 04 30          	movzbl (%rax,%rsi,1),%eax
    847e:	24 01                	and    $0x1,%al
    8480:	c3                   	ret
    8481:	50                   	push   %rax
    8482:	e8 39 70 00 00       	call   f4c0 <pony_error>
    8487:	66 0f 1f 84 00 00 00 	nopw   0x0(%rax,%rax,1)
    848e:	00 00 
    8490:	55                   	push   %rbp
    8491:	41 57                	push   %r15
    8493:	41 56                	push   %r14
    8495:	53                   	push   %rbx
    8496:	50                   	push   %rax
    8497:	48 89 fb             	mov    %rdi,%rbx
    849a:	48 89 57 08          	mov    %rdx,0x8(%rdi)
    849e:	48 85 d2             	test   %rdx,%rdx
    84a1:	74 6f                	je     8512 <Main_runtime_override_defaults_oo+0x1be2>
    84a3:	48 8d 42 ff          	lea    -0x1(%rdx),%rax
    84a7:	41 bf 08 00 00 00    	mov    $0x8,%r15d
    84ad:	49 89 d6             	mov    %rdx,%r14
    84b0:	89 f5                	mov    %esi,%ebp
    84b2:	f3 48 0f bd c0       	lzcnt  %rax,%rax
    84b7:	89 c1                	mov    %eax,%ecx
    84b9:	f6 d9                	neg    %cl
    84bb:	48 85 c0             	test   %rax,%rax
    84be:	b8 01 00 00 00       	mov    $0x1,%eax
    84c3:	c4 e2 f1 f7 c8       	shlx   %rcx,%rax,%rcx
    84c8:	48 0f 44 c8          	cmove  %rax,%rcx
    84cc:	48 39 d1             	cmp    %rdx,%rcx
    84cf:	48 0f 46 ca          	cmovbe %rdx,%rcx
    84d3:	48 83 f9 09          	cmp    $0x9,%rcx
    84d7:	4c 0f 43 f9          	cmovae %rcx,%r15
    84db:	4c 89 7b 10          	mov    %r15,0x10(%rbx)
    84df:	e8 ac ab 00 00       	call   13090 <pony_ctx>
    84e4:	48 89 c7             	mov    %rax,%rdi
    84e7:	4c 89 fe             	mov    %r15,%rsi
    84ea:	e8 01 17 00 00       	call   9bf0 <pony_alloc>
    84ef:	40 80 e5 01          	and    $0x1,%bpl
    84f3:	48 89 43 18          	mov    %rax,0x18(%rbx)
    84f7:	31 c0                	xor    %eax,%eax
    84f9:	0f 1f 80 00 00 00 00 	nopl   0x0(%rax)
    8500:	48 8b 4b 18          	mov    0x18(%rbx),%rcx
    8504:	40 88 2c 01          	mov    %bpl,(%rcx,%rax,1)
    8508:	48 ff c0             	inc    %rax
    850b:	49 39 c6             	cmp    %rax,%r14
    850e:	75 f0                	jne    8500 <Main_runtime_override_defaults_oo+0x1bd0>
    8510:	eb 09                	jmp    851b <Main_runtime_override_defaults_oo+0x1beb>
    8512:	c5 f8 57 c0          	vxorps %xmm0,%xmm0,%xmm0
    8516:	c5 f8 11 43 10       	vmovups %xmm0,0x10(%rbx)
    851b:	48 83 c4 08          	add    $0x8,%rsp
    851f:	5b                   	pop    %rbx
    8520:	41 5e                	pop    %r14
    8522:	41 5f                	pop    %r15
    8524:	5d                   	pop    %rbp
    8525:	c3                   	ret
    8526:	66 2e 0f 1f 84 00 00 	cs nopw 0x0(%rax,%rax,1)
    852d:	00 00 00 
    8530:	48 39 77 08          	cmp    %rsi,0x8(%rdi)
    8534:	76 11                	jbe    8547 <Main_runtime_override_defaults_oo+0x1c17>
    8536:	48 8b 4f 18          	mov    0x18(%rdi),%rcx
    853a:	80 e2 01             	and    $0x1,%dl
    853d:	0f b6 04 31          	movzbl (%rcx,%rsi,1),%eax
    8541:	88 14 31             	mov    %dl,(%rcx,%rsi,1)
    8544:	24 01                	and    $0x1,%al
    8546:	c3                   	ret
    8547:	50                   	push   %rax
    8548:	e8 73 6f 00 00       	call   f4c0 <pony_error>
    854d:	0f 1f 00             	nopl   (%rax)
    8550:	0f b6 47 08          	movzbl 0x8(%rdi),%eax
    8554:	c3                   	ret
    8555:	66 66 2e 0f 1f 84 00 	data16 cs nopw 0x0(%rax,%rax,1)
    855c:	00 00 00 00 
    8560:	31 c0                	xor    %eax,%eax
    8562:	c3                   	ret
    8563:	66 66 66 66 2e 0f 1f 	data16 data16 data16 cs nopw 0x0(%rax,%rax,1)
    856a:	84 00 00 00 00 00 
    8570:	53                   	push   %rbx
    8571:	48 89 f3             	mov    %rsi,%rbx
    8574:	e8 17 ab 00 00       	call   13090 <pony_ctx>
    8579:	48 89 c7             	mov    %rax,%rdi
    857c:	48 89 de             	mov    %rbx,%rsi
    857f:	5b                   	pop    %rbx
    8580:	e9 6b 16 00 00       	jmp    9bf0 <pony_alloc>
    8585:	66 66 2e 0f 1f 84 00 	data16 cs nopw 0x0(%rax,%rax,1)
    858c:	00 00 00 00 
    8590:	41 57                	push   %r15
    8592:	41 56                	push   %r14
    8594:	53                   	push   %rbx
    8595:	48 89 d3             	mov    %rdx,%rbx
    8598:	49 89 f6             	mov    %rsi,%r14
    859b:	49 89 ff             	mov    %rdi,%r15
    859e:	e8 ed aa 00 00       	call   13090 <pony_ctx>
    85a3:	48 89 c7             	mov    %rax,%rdi
    85a6:	4c 89 fe             	mov    %r15,%rsi
    85a9:	4c 89 f2             	mov    %r14,%rdx
    85ac:	48 89 d9             	mov    %rbx,%rcx
    85af:	5b                   	pop    %rbx
    85b0:	41 5e                	pop    %r14
    85b2:	41 5f                	pop    %r15
    85b4:	e9 97 16 00 00       	jmp    9c50 <pony_realloc>
    85b9:	0f 1f 80 00 00 00 00 	nopl   0x0(%rax)
    85c0:	48 89 f8             	mov    %rdi,%rax
    85c3:	c3                   	ret
    85c4:	66 66 66 2e 0f 1f 84 	data16 data16 cs nopw 0x0(%rax,%rax,1)
    85cb:	00 00 00 00 00 
    85d0:	0f b6 04 37          	movzbl (%rdi,%rsi,1),%eax
    85d4:	c3                   	ret
    85d5:	66 66 2e 0f 1f 84 00 	data16 cs nopw 0x0(%rax,%rax,1)
    85dc:	00 00 00 00 
    85e0:	0f b6 04 37          	movzbl (%rdi,%rsi,1),%eax
    85e4:	c3                   	ret
    85e5:	66 66 2e 0f 1f 84 00 	data16 cs nopw 0x0(%rax,%rax,1)
    85ec:	00 00 00 00 
    85f0:	0f b6 04 37          	movzbl (%rdi,%rsi,1),%eax
    85f4:	c3                   	ret
    85f5:	66 66 2e 0f 1f 84 00 	data16 cs nopw 0x0(%rax,%rax,1)
    85fc:	00 00 00 00 
    8600:	0f b6 04 37          	movzbl (%rdi,%rsi,1),%eax
    8604:	88 14 37             	mov    %dl,(%rdi,%rsi,1)
    8607:	c3                   	ret
    8608:	0f 1f 84 00 00 00 00 	nopl   0x0(%rax,%rax,1)
    860f:	00 
    8610:	48 8d 04 37          	lea    (%rdi,%rsi,1),%rax
    8614:	c3                   	ret
    8615:	66 66 2e 0f 1f 84 00 	data16 cs nopw 0x0(%rax,%rax,1)
    861c:	00 00 00 00 
    8620:	48 8d 04 37          	lea    (%rdi,%rsi,1),%rax
    8624:	c3                   	ret
    8625:	66 66 2e 0f 1f 84 00 	data16 cs nopw 0x0(%rax,%rax,1)
    862c:	00 00 00 00 
    8630:	48 8d 04 37          	lea    (%rdi,%rsi,1),%rax
    8634:	c3                   	ret
    8635:	66 66 2e 0f 1f 84 00 	data16 cs nopw 0x0(%rax,%rax,1)
    863c:	00 00 00 00 
    8640:	53                   	push   %rbx
    8641:	48 89 fb             	mov    %rdi,%rbx
    8644:	48 89 f7             	mov    %rsi,%rdi
    8647:	48 89 de             	mov    %rbx,%rsi
    864a:	e8 81 cf ff ff       	call   55d0 <memcpy@plt>
    864f:	48 89 d8             	mov    %rbx,%rax
    8652:	5b                   	pop    %rbx
    8653:	c3                   	ret
    8654:	66 66 66 2e 0f 1f 84 	data16 data16 cs nopw 0x0(%rax,%rax,1)
    865b:	00 00 00 00 00 
    8660:	53                   	push   %rbx
    8661:	48 89 fb             	mov    %rdi,%rbx
    8664:	48 89 f7             	mov    %rsi,%rdi
    8667:	48 89 de             	mov    %rbx,%rsi
    866a:	e8 61 cf ff ff       	call   55d0 <memcpy@plt>
    866f:	48 89 d8             	mov    %rbx,%rax
    8672:	5b                   	pop    %rbx
    8673:	c3                   	ret
    8674:	66 66 66 2e 0f 1f 84 	data16 data16 cs nopw 0x0(%rax,%rax,1)
    867b:	00 00 00 00 00 
    8680:	53                   	push   %rbx
    8681:	48 89 fb             	mov    %rdi,%rbx
    8684:	48 89 f7             	mov    %rsi,%rdi
    8687:	48 89 de             	mov    %rbx,%rsi
    868a:	e8 41 cf ff ff       	call   55d0 <memcpy@plt>
    868f:	48 89 d8             	mov    %rbx,%rax
    8692:	5b                   	pop    %rbx
    8693:	c3                   	ret
    8694:	66 66 66 2e 0f 1f 84 	data16 data16 cs nopw 0x0(%rax,%rax,1)
    869b:	00 00 00 00 00 
    86a0:	48 85 ff             	test   %rdi,%rdi
    86a3:	0f 94 c0             	sete   %al
    86a6:	c3                   	ret
    86a7:	66 0f 1f 84 00 00 00 	nopw   0x0(%rax,%rax,1)
    86ae:	00 00 

00000000000086b0 <U32_Serialise>:
    86b0:	48 b8 09 d3 08 44 7b 	movabs $0x56802e7b4408d309,%rax
    86b7:	2e 80 56 
    86ba:	48 89 04 0a          	mov    %rax,(%rdx,%rcx,1)
    86be:	8b 46 08             	mov    0x8(%rsi),%eax
    86c1:	89 44 0a 08          	mov    %eax,0x8(%rdx,%rcx,1)
    86c5:	c3                   	ret
    86c6:	66 2e 0f 1f 84 00 00 	cs nopw 0x0(%rax,%rax,1)
    86cd:	00 00 00 

00000000000086d0 <U32_Deserialise>:
    86d0:	48 8d 05 09 b7 01 00 	lea    0x1b709(%rip),%rax        # 23de0 <cycle_type+0x80>
    86d7:	48 89 06             	mov    %rax,(%rsi)
    86da:	c3                   	ret
    86db:	0f 1f 44 00 00       	nopl   0x0(%rax,%rax,1)
    86e0:	89 f0                	mov    %esi,%eax
    86e2:	23 47 08             	and    0x8(%rdi),%eax
    86e5:	c3                   	ret
    86e6:	66 2e 0f 1f 84 00 00 	cs nopw 0x0(%rax,%rax,1)
    86ed:	00 00 00 
    86f0:	89 f0                	mov    %esi,%eax
    86f2:	23 47 08             	and    0x8(%rdi),%eax
    86f5:	c3                   	ret
    86f6:	66 2e 0f 1f 84 00 00 	cs nopw 0x0(%rax,%rax,1)
    86fd:	00 00 00 
    8700:	83 fe 1f             	cmp    $0x1f,%esi
    8703:	b8 1f 00 00 00       	mov    $0x1f,%eax
    8708:	0f 42 c6             	cmovb  %esi,%eax
    870b:	c4 e2 79 f7 47 08    	shlx   %eax,0x8(%rdi),%eax
    8711:	c3                   	ret
    8712:	66 66 66 66 66 2e 0f 	data16 data16 data16 data16 cs nopw 0x0(%rax,%rax,1)
    8719:	1f 84 00 00 00 00 00 
    8720:	83 fe 1f             	cmp    $0x1f,%esi
    8723:	b8 1f 00 00 00       	mov    $0x1f,%eax
    8728:	0f 42 c6             	cmovb  %esi,%eax
    872b:	c4 e2 79 f7 47 08    	shlx   %eax,0x8(%rdi),%eax
    8731:	c3                   	ret
    8732:	66 66 66 66 66 2e 0f 	data16 data16 data16 data16 cs nopw 0x0(%rax,%rax,1)
    8739:	1f 84 00 00 00 00 00 
    8740:	8b 47 08             	mov    0x8(%rdi),%eax
    8743:	c3                   	ret
    8744:	66 66 66 2e 0f 1f 84 	data16 data16 cs nopw 0x0(%rax,%rax,1)
    874b:	00 00 00 00 00 
    8750:	8b 47 08             	mov    0x8(%rdi),%eax
    8753:	c3                   	ret
    8754:	66 66 66 2e 0f 1f 84 	data16 data16 cs nopw 0x0(%rax,%rax,1)
    875b:	00 00 00 00 00 
    8760:	39 77 08             	cmp    %esi,0x8(%rdi)
    8763:	0f 95 c0             	setne  %al
    8766:	c3                   	ret
    8767:	66 0f 1f 84 00 00 00 	nopw   0x0(%rax,%rax,1)
    876e:	00 00 
    8770:	39 77 08             	cmp    %esi,0x8(%rdi)
    8773:	0f 95 c0             	setne  %al
    8776:	c3                   	ret
    8777:	66 0f 1f 84 00 00 00 	nopw   0x0(%rax,%rax,1)
    877e:	00 00 
    8780:	39 77 08             	cmp    %esi,0x8(%rdi)
    8783:	0f 94 c0             	sete   %al
    8786:	c3                   	ret
    8787:	66 0f 1f 84 00 00 00 	nopw   0x0(%rax,%rax,1)
    878e:	00 00 
    8790:	39 77 08             	cmp    %esi,0x8(%rdi)
    8793:	0f 94 c0             	sete   %al
    8796:	c3                   	ret
    8797:	66 0f 1f 84 00 00 00 	nopw   0x0(%rax,%rax,1)
    879e:	00 00 
    87a0:	89 d0                	mov    %edx,%eax
    87a2:	c3                   	ret
    87a3:	66 66 66 66 2e 0f 1f 	data16 data16 data16 cs nopw 0x0(%rax,%rax,1)
    87aa:	84 00 00 00 00 00 

00000000000087b0 <I64_Serialise>:
    87b0:	48 b8 a8 da 6b d1 02 	movabs $0x3be4fe02d16bdaa8,%rax
    87b7:	fe e4 3b 
    87ba:	48 89 04 0a          	mov    %rax,(%rdx,%rcx,1)
    87be:	48 8b 46 08          	mov    0x8(%rsi),%rax
    87c2:	48 89 44 0a 08       	mov    %rax,0x8(%rdx,%rcx,1)
    87c7:	c3                   	ret
    87c8:	0f 1f 84 00 00 00 00 	nopl   0x0(%rax,%rax,1)
    87cf:	00 

00000000000087d0 <I64_Deserialise>:
    87d0:	48 8d 05 99 b7 01 00 	lea    0x1b799(%rip),%rax        # 23f70 <cycle_type+0x210>
    87d7:	48 89 06             	mov    %rax,(%rsi)
    87da:	c3                   	ret
    87db:	0f 1f 44 00 00       	nopl   0x0(%rax,%rax,1)
    87e0:	48 8b 47 08          	mov    0x8(%rdi),%rax
    87e4:	c3                   	ret
    87e5:	66 66 2e 0f 1f 84 00 	data16 cs nopw 0x0(%rax,%rax,1)
    87ec:	00 00 00 00 
    87f0:	48 8b 47 08          	mov    0x8(%rdi),%rax
    87f4:	c3                   	ret
    87f5:	66 66 2e 0f 1f 84 00 	data16 cs nopw 0x0(%rax,%rax,1)
    87fc:	00 00 00 00 
    8800:	48 8b 57 08          	mov    0x8(%rdi),%rdx
    8804:	48 89 d6             	mov    %rdx,%rsi
    8807:	48 f7 de             	neg    %rsi
    880a:	48 0f 48 f2          	cmovs  %rdx,%rsi
    880e:	48 c1 ea 3f          	shr    $0x3f,%rdx
    8812:	e9 69 dc ff ff       	jmp    6480 <__DescOffsetLookupFn+0x620>
    8817:	66 0f 1f 84 00 00 00 	nopw   0x0(%rax,%rax,1)
    881e:	00 00 
    8820:	48 8b 57 08          	mov    0x8(%rdi),%rdx
    8824:	48 89 d6             	mov    %rdx,%rsi
    8827:	48 f7 de             	neg    %rsi
    882a:	48 0f 48 f2          	cmovs  %rdx,%rsi
    882e:	48 c1 ea 3f          	shr    $0x3f,%rdx
    8832:	e9 49 dc ff ff       	jmp    6480 <__DescOffsetLookupFn+0x620>
    8837:	66 0f 1f 84 00 00 00 	nopw   0x0(%rax,%rax,1)
    883e:	00 00 
    8840:	48 89 f0             	mov    %rsi,%rax
    8843:	48 03 47 08          	add    0x8(%rdi),%rax
    8847:	c3                   	ret
    8848:	0f 1f 84 00 00 00 00 	nopl   0x0(%rax,%rax,1)
    884f:	00 
    8850:	48 89 f0             	mov    %rsi,%rax
    8853:	48 03 47 08          	add    0x8(%rdi),%rax
    8857:	c3                   	ret
    8858:	0f 1f 84 00 00 00 00 	nopl   0x0(%rax,%rax,1)
    885f:	00 
    8860:	48 89 f0             	mov    %rsi,%rax
    8863:	48 0f af 47 08       	imul   0x8(%rdi),%rax
    8868:	c3                   	ret
    8869:	0f 1f 80 00 00 00 00 	nopl   0x0(%rax)
    8870:	48 89 f0             	mov    %rsi,%rax
    8873:	48 0f af 47 08       	imul   0x8(%rdi),%rax
    8878:	c3                   	ret
    8879:	0f 1f 80 00 00 00 00 	nopl   0x0(%rax)
    8880:	48 8b 47 08          	mov    0x8(%rdi),%rax
    8884:	c3                   	ret
    8885:	66 66 2e 0f 1f 84 00 	data16 cs nopw 0x0(%rax,%rax,1)
    888c:	00 00 00 00 
    8890:	48 8b 47 08          	mov    0x8(%rdi),%rax
    8894:	c3                   	ret
    8895:	66 66 2e 0f 1f 84 00 	data16 cs nopw 0x0(%rax,%rax,1)
    889c:	00 00 00 00 
    88a0:	48 85 f6             	test   %rsi,%rsi
    88a3:	74 19                	je     88be <I64_Deserialise+0xee>
    88a5:	48 8b 47 08          	mov    0x8(%rdi),%rax
    88a9:	48 83 fe ff          	cmp    $0xffffffffffffffff,%rsi
    88ad:	75 12                	jne    88c1 <I64_Deserialise+0xf1>
    88af:	48 b9 00 00 00 00 00 	movabs $0x8000000000000000,%rcx
    88b6:	00 00 80 
    88b9:	48 39 c8             	cmp    %rcx,%rax
    88bc:	75 03                	jne    88c1 <I64_Deserialise+0xf1>
    88be:	31 c0                	xor    %eax,%eax
    88c0:	c3                   	ret
    88c1:	48 99                	cqto
    88c3:	48 f7 fe             	idiv   %rsi
    88c6:	c3                   	ret
    88c7:	66 0f 1f 84 00 00 00 	nopw   0x0(%rax,%rax,1)
    88ce:	00 00 
    88d0:	48 85 f6             	test   %rsi,%rsi
    88d3:	74 19                	je     88ee <I64_Deserialise+0x11e>
    88d5:	48 8b 47 08          	mov    0x8(%rdi),%rax
    88d9:	48 83 fe ff          	cmp    $0xffffffffffffffff,%rsi
    88dd:	75 12                	jne    88f1 <I64_Deserialise+0x121>
    88df:	48 b9 00 00 00 00 00 	movabs $0x8000000000000000,%rcx
    88e6:	00 00 80 
    88e9:	48 39 c8             	cmp    %rcx,%rax
    88ec:	75 03                	jne    88f1 <I64_Deserialise+0x121>
    88ee:	31 c0                	xor    %eax,%eax
    88f0:	c3                   	ret
    88f1:	48 99                	cqto
    88f3:	48 f7 fe             	idiv   %rsi
    88f6:	c3                   	ret
    88f7:	66 0f 1f 84 00 00 00 	nopw   0x0(%rax,%rax,1)
    88fe:	00 00 
    8900:	48 8b 4f 08          	mov    0x8(%rdi),%rcx
    8904:	48 89 c8             	mov    %rcx,%rax
    8907:	48 f7 d8             	neg    %rax
    890a:	48 0f 48 c1          	cmovs  %rcx,%rax
    890e:	c3                   	ret
    890f:	90                   	nop
    8910:	48 8b 4f 08          	mov    0x8(%rdi),%rcx
    8914:	48 89 c8             	mov    %rcx,%rax
    8917:	48 f7 d8             	neg    %rax
    891a:	48 0f 48 c1          	cmovs  %rcx,%rax
    891e:	c3                   	ret
    891f:	90                   	nop
    8920:	31 c0                	xor    %eax,%eax
    8922:	48 2b 47 08          	sub    0x8(%rdi),%rax
    8926:	c3                   	ret
    8927:	66 0f 1f 84 00 00 00 	nopw   0x0(%rax,%rax,1)
    892e:	00 00 
    8930:	31 c0                	xor    %eax,%eax
    8932:	48 2b 47 08          	sub    0x8(%rdi),%rax
    8936:	c3                   	ret
    8937:	66 0f 1f 84 00 00 00 	nopw   0x0(%rax,%rax,1)
    893e:	00 00 
    8940:	48 39 77 08          	cmp    %rsi,0x8(%rdi)
    8944:	0f 9c c0             	setl   %al
    8947:	c3                   	ret
    8948:	0f 1f 84 00 00 00 00 	nopl   0x0(%rax,%rax,1)
    894f:	00 
    8950:	48 39 77 08          	cmp    %rsi,0x8(%rdi)
    8954:	0f 9c c0             	setl   %al
    8957:	c3                   	ret
    8958:	0f 1f 84 00 00 00 00 	nopl   0x0(%rax,%rax,1)
    895f:	00 
    8960:	48 89 d0             	mov    %rdx,%rax
    8963:	c3                   	ret
    8964:	66 66 66 2e 0f 1f 84 	data16 data16 cs nopw 0x0(%rax,%rax,1)
    896b:	00 00 00 00 00 

0000000000008970 <_ToString_Serialise>:
    8970:	48 b8 d8 20 05 53 4a 	movabs $0x1f69e64a530520d8,%rax
    8977:	e6 69 1f 
    897a:	48 89 04 0a          	mov    %rax,(%rdx,%rcx,1)
    897e:	c3                   	ret
    897f:	90                   	nop

0000000000008980 <time__ClockRealtime_Serialise>:
    8980:	48 b8 dc 28 27 f0 b6 	movabs $0x573b27b6f02728dc,%rax
    8987:	27 3b 57 
    898a:	48 89 04 0a          	mov    %rax,(%rdx,%rcx,1)
    898e:	c3                   	ret
    898f:	90                   	nop

0000000000008990 <AmbientAuth_Serialise>:
    8990:	48 b8 e9 51 19 7d c9 	movabs $0x662bf2c97d1951e9,%rax
    8997:	f2 2b 66 
    899a:	48 89 04 0a          	mov    %rax,(%rdx,%rcx,1)
    899e:	c3                   	ret
    899f:	90                   	nop

00000000000089a0 <String_SerialiseTrace>:
    89a0:	48 8b 56 08          	mov    0x8(%rsi),%rdx
    89a4:	48 8b 76 18          	mov    0x18(%rsi),%rsi
    89a8:	48 ff c2             	inc    %rdx
    89ab:	e9 c0 61 00 00       	jmp    eb70 <pony_serialise_reserve>

00000000000089b0 <String_Serialise>:
    89b0:	48 b8 b8 5a 20 59 fa 	movabs $0xb4020fa59205ab8,%rax
    89b7:	20 40 0b 
    89ba:	48 89 04 0a          	mov    %rax,(%rdx,%rcx,1)
    89be:	41 83 f8 02          	cmp    $0x2,%r8d
    89c2:	75 01                	jne    89c5 <String_Serialise+0x15>
    89c4:	c3                   	ret
    89c5:	41 57                	push   %r15
    89c7:	41 56                	push   %r14
    89c9:	41 54                	push   %r12
    89cb:	53                   	push   %rbx
    89cc:	50                   	push   %rax
    89cd:	48 8b 5e 08          	mov    0x8(%rsi),%rbx
    89d1:	49 89 f7             	mov    %rsi,%r15
    89d4:	49 89 d6             	mov    %rdx,%r14
    89d7:	49 89 cc             	mov    %rcx,%r12
    89da:	48 89 5c 0a 08       	mov    %rbx,0x8(%rdx,%rcx,1)
    89df:	48 ff c3             	inc    %rbx
    89e2:	48 89 5c 0a 10       	mov    %rbx,0x10(%rdx,%rcx,1)
    89e7:	48 8b 46 18          	mov    0x18(%rsi),%rax
    89eb:	48 89 c6             	mov    %rax,%rsi
    89ee:	e8 2d 62 00 00       	call   ec20 <pony_serialise_offset>
    89f3:	4b 89 44 26 18       	mov    %rax,0x18(%r14,%r12,1)
    89f8:	49 01 c6             	add    %rax,%r14
    89fb:	48 89 da             	mov    %rbx,%rdx
    89fe:	49 8b 77 18          	mov    0x18(%r15),%rsi
    8a02:	4c 89 f7             	mov    %r14,%rdi
    8a05:	48 83 c4 08          	add    $0x8,%rsp
    8a09:	5b                   	pop    %rbx
    8a0a:	41 5c                	pop    %r12
    8a0c:	41 5e                	pop    %r14
    8a0e:	41 5f                	pop    %r15
    8a10:	e9 bb cb ff ff       	jmp    55d0 <memcpy@plt>
    8a15:	66 66 2e 0f 1f 84 00 	data16 cs nopw 0x0(%rax,%rax,1)
    8a1c:	00 00 00 00 

0000000000008a20 <String_Deserialise>:
    8a20:	53                   	push   %rbx
    8a21:	48 8d 05 c8 ba 01 00 	lea    0x1bac8(%rip),%rax        # 244f0 <cycle_type+0x790>
    8a28:	48 89 f3             	mov    %rsi,%rbx
    8a2b:	48 89 06             	mov    %rax,(%rsi)
    8a2e:	48 8b 56 10          	mov    0x10(%rsi),%rdx
    8a32:	48 8b 76 18          	mov    0x18(%rsi),%rsi
    8a36:	e8 25 66 00 00       	call   f060 <pony_deserialise_block>
    8a3b:	48 89 43 18          	mov    %rax,0x18(%rbx)
    8a3f:	5b                   	pop    %rbx
    8a40:	c3                   	ret
    8a41:	66 66 66 66 66 66 2e 	data16 data16 data16 data16 data16 cs nopw 0x0(%rax,%rax,1)
    8a48:	0f 1f 84 00 00 00 00 
    8a4f:	00 

0000000000008a50 <Array_String_val_SerialiseTrace>:
    8a50:	48 8b 56 08          	mov    0x8(%rsi),%rdx
    8a54:	48 85 d2             	test   %rdx,%rdx
    8a57:	74 5c                	je     8ab5 <Array_String_val_SerialiseTrace+0x65>
    8a59:	41 57                	push   %r15
    8a5b:	41 56                	push   %r14
    8a5d:	41 55                	push   %r13
    8a5f:	41 54                	push   %r12
    8a61:	53                   	push   %rbx
    8a62:	4c 8b 76 18          	mov    0x18(%rsi),%r14
    8a66:	48 c1 e2 03          	shl    $0x3,%rdx
    8a6a:	49 89 f7             	mov    %rsi,%r15
    8a6d:	48 89 fb             	mov    %rdi,%rbx
    8a70:	4c 89 f6             	mov    %r14,%rsi
    8a73:	e8 f8 60 00 00       	call   eb70 <pony_serialise_reserve>
    8a78:	4d 8b 67 08          	mov    0x8(%r15),%r12
    8a7c:	4d 85 e4             	test   %r12,%r12
    8a7f:	74 2b                	je     8aac <Array_String_val_SerialiseTrace+0x5c>
    8a81:	4c 8d 3d 68 ba 01 00 	lea    0x1ba68(%rip),%r15        # 244f0 <cycle_type+0x790>
    8a88:	45 31 ed             	xor    %r13d,%r13d
    8a8b:	0f 1f 44 00 00       	nopl   0x0(%rax,%rax,1)
    8a90:	4b 8b 34 ee          	mov    (%r14,%r13,8),%rsi
    8a94:	b9 01 00 00 00       	mov    $0x1,%ecx
    8a99:	48 89 df             	mov    %rbx,%rdi
    8a9c:	4c 89 fa             	mov    %r15,%rdx
    8a9f:	e8 cc 69 00 00       	call   f470 <pony_traceknown>
    8aa4:	49 ff c5             	inc    %r13
    8aa7:	4d 39 ec             	cmp    %r13,%r12
    8aaa:	75 e4                	jne    8a90 <Array_String_val_SerialiseTrace+0x40>
    8aac:	5b                   	pop    %rbx
    8aad:	41 5c                	pop    %r12
    8aaf:	41 5d                	pop    %r13
    8ab1:	41 5e                	pop    %r14
    8ab3:	41 5f                	pop    %r15
    8ab5:	c3                   	ret
    8ab6:	66 2e 0f 1f 84 00 00 	cs nopw 0x0(%rax,%rax,1)
    8abd:	00 00 00 

0000000000008ac0 <Array_String_val_Serialise>:
    8ac0:	48 b8 a4 b3 fd dc fa 	movabs $0x1df00ffadcfdb3a4,%rax
    8ac7:	0f f0 1d 
    8aca:	48 89 04 0a          	mov    %rax,(%rdx,%rcx,1)
    8ace:	41 83 f8 02          	cmp    $0x2,%r8d
    8ad2:	74 5d                	je     8b31 <Array_String_val_Serialise+0x71>
    8ad4:	41 57                	push   %r15
    8ad6:	41 56                	push   %r14
    8ad8:	41 55                	push   %r13
    8ada:	41 54                	push   %r12
    8adc:	53                   	push   %rbx
    8add:	4c 8b 66 08          	mov    0x8(%rsi),%r12
    8ae1:	48 89 d3             	mov    %rdx,%rbx
    8ae4:	49 89 fe             	mov    %rdi,%r14
    8ae7:	49 89 cd             	mov    %rcx,%r13
    8aea:	4c 89 64 0a 08       	mov    %r12,0x8(%rdx,%rcx,1)
    8aef:	4c 89 64 0a 10       	mov    %r12,0x10(%rdx,%rcx,1)
    8af4:	4c 8b 7e 18          	mov    0x18(%rsi),%r15
    8af8:	4c 89 fe             	mov    %r15,%rsi
    8afb:	e8 20 61 00 00       	call   ec20 <pony_serialise_offset>
    8b00:	4a 89 44 2b 18       	mov    %rax,0x18(%rbx,%r13,1)
    8b05:	4d 85 e4             	test   %r12,%r12
    8b08:	74 1e                	je     8b28 <Array_String_val_Serialise+0x68>
    8b0a:	48 01 c3             	add    %rax,%rbx
    8b0d:	45 31 ed             	xor    %r13d,%r13d
    8b10:	4b 8b 34 ef          	mov    (%r15,%r13,8),%rsi
    8b14:	4c 89 f7             	mov    %r14,%rdi
    8b17:	e8 04 61 00 00       	call   ec20 <pony_serialise_offset>
    8b1c:	4a 89 04 eb          	mov    %rax,(%rbx,%r13,8)
    8b20:	49 ff c5             	inc    %r13
    8b23:	4d 39 ec             	cmp    %r13,%r12
    8b26:	75 e8                	jne    8b10 <Array_String_val_Serialise+0x50>
    8b28:	5b                   	pop    %rbx
    8b29:	41 5c                	pop    %r12
    8b2b:	41 5d                	pop    %r13
    8b2d:	41 5e                	pop    %r14
    8b2f:	41 5f                	pop    %r15
    8b31:	c3                   	ret
    8b32:	66 66 66 66 66 2e 0f 	data16 data16 data16 data16 cs nopw 0x0(%rax,%rax,1)
    8b39:	1f 84 00 00 00 00 00 

0000000000008b40 <Array_String_val_Deserialise>:
    8b40:	41 57                	push   %r15
    8b42:	41 56                	push   %r14
    8b44:	41 55                	push   %r13
    8b46:	41 54                	push   %r12
    8b48:	53                   	push   %rbx
    8b49:	48 8d 05 e0 ba 01 00 	lea    0x1bae0(%rip),%rax        # 24630 <cycle_type+0x8d0>
    8b50:	49 89 f7             	mov    %rsi,%r15
    8b53:	48 89 fb             	mov    %rdi,%rbx
    8b56:	48 89 06             	mov    %rax,(%rsi)
    8b59:	48 8b 56 10          	mov    0x10(%rsi),%rdx
    8b5d:	48 8b 76 18          	mov    0x18(%rsi),%rsi
    8b61:	48 c1 e2 03          	shl    $0x3,%rdx
    8b65:	e8 f6 64 00 00       	call   f060 <pony_deserialise_block>
    8b6a:	49 89 47 18          	mov    %rax,0x18(%r15)
    8b6e:	4d 8b 67 08          	mov    0x8(%r15),%r12
    8b72:	4d 85 e4             	test   %r12,%r12
    8b75:	74 34                	je     8bab <Array_String_val_Deserialise+0x6b>
    8b77:	4c 8d 3d 72 b9 01 00 	lea    0x1b972(%rip),%r15        # 244f0 <cycle_type+0x790>
    8b7e:	49 89 c6             	mov    %rax,%r14
    8b81:	45 31 ed             	xor    %r13d,%r13d
    8b84:	66 66 66 2e 0f 1f 84 	data16 data16 cs nopw 0x0(%rax,%rax,1)
    8b8b:	00 00 00 00 00 
    8b90:	4b 8b 14 ee          	mov    (%r14,%r13,8),%rdx
    8b94:	48 89 df             	mov    %rbx,%rdi
    8b97:	4c 89 fe             	mov    %r15,%rsi
    8b9a:	e8 61 62 00 00       	call   ee00 <pony_deserialise_offset>
    8b9f:	4b 89 04 ee          	mov    %rax,(%r14,%r13,8)
    8ba3:	49 ff c5             	inc    %r13
    8ba6:	4d 39 ec             	cmp    %r13,%r12
    8ba9:	75 e5                	jne    8b90 <Array_String_val_Deserialise+0x50>
    8bab:	5b                   	pop    %rbx
    8bac:	41 5c                	pop    %r12
    8bae:	41 5d                	pop    %r13
    8bb0:	41 5e                	pop    %r14
    8bb2:	41 5f                	pop    %r15
    8bb4:	c3                   	ret
    8bb5:	66 66 2e 0f 1f 84 00 	data16 cs nopw 0x0(%rax,%rax,1)
    8bbc:	00 00 00 00 

0000000000008bc0 <Bool_Serialise>:
    8bc0:	48 b8 b5 ed a2 08 64 	movabs $0x3111986408a2edb5,%rax
    8bc7:	98 11 31 
    8bca:	48 89 04 0a          	mov    %rax,(%rdx,%rcx,1)
    8bce:	0f b6 46 08          	movzbl 0x8(%rsi),%eax
    8bd2:	88 44 0a 08          	mov    %al,0x8(%rdx,%rcx,1)
    8bd6:	c3                   	ret
    8bd7:	66 0f 1f 84 00 00 00 	nopw   0x0(%rax,%rax,1)
    8bde:	00 00 

0000000000008be0 <Bool_Deserialise>:
    8be0:	48 8d 05 39 bb 01 00 	lea    0x1bb39(%rip),%rax        # 24720 <cycle_type+0x9c0>
    8be7:	48 89 06             	mov    %rax,(%rsi)
    8bea:	c3                   	ret
    8beb:	0f 1f 44 00 00       	nopl   0x0(%rax,%rax,1)
    8bf0:	0f b6 47 08          	movzbl 0x8(%rdi),%eax
    8bf4:	34 01                	xor    $0x1,%al
    8bf6:	c3                   	ret
    8bf7:	66 0f 1f 84 00 00 00 	nopw   0x0(%rax,%rax,1)
    8bfe:	00 00 
    8c00:	0f b6 47 08          	movzbl 0x8(%rdi),%eax
    8c04:	34 01                	xor    $0x1,%al
    8c06:	c3                   	ret
    8c07:	66 0f 1f 84 00 00 00 	nopw   0x0(%rax,%rax,1)
    8c0e:	00 00 
    8c10:	89 d0                	mov    %edx,%eax
    8c12:	c3                   	ret
    8c13:	66 66 66 66 2e 0f 1f 	data16 data16 data16 cs nopw 0x0(%rax,%rax,1)
    8c1a:	84 00 00 00 00 00 
    8c20:	89 f0                	mov    %esi,%eax
    8c22:	22 47 08             	and    0x8(%rdi),%al
    8c25:	c3                   	ret
    8c26:	66 2e 0f 1f 84 00 00 	cs nopw 0x0(%rax,%rax,1)
    8c2d:	00 00 00 
    8c30:	89 f0                	mov    %esi,%eax
    8c32:	22 47 08             	and    0x8(%rdi),%al
    8c35:	c3                   	ret
    8c36:	66 2e 0f 1f 84 00 00 	cs nopw 0x0(%rax,%rax,1)
    8c3d:	00 00 00 

0000000000008c40 <F64_Serialise>:
    8c40:	48 b8 b2 9e 84 66 ad 	movabs $0x6357f1ad66849eb2,%rax
    8c47:	f1 57 63 
    8c4a:	48 89 04 0a          	mov    %rax,(%rdx,%rcx,1)
    8c4e:	c5 fb 10 46 08       	vmovsd 0x8(%rsi),%xmm0
    8c53:	c5 fb 11 44 0a 08    	vmovsd %xmm0,0x8(%rdx,%rcx,1)
    8c59:	c3                   	ret
    8c5a:	66 0f 1f 44 00 00    	nopw   0x0(%rax,%rax,1)

0000000000008c60 <F64_Deserialise>:
    8c60:	48 8d 05 49 bc 01 00 	lea    0x1bc49(%rip),%rax        # 248b0 <cycle_type+0xb50>
    8c67:	48 89 06             	mov    %rax,(%rsi)
    8c6a:	c3                   	ret
    8c6b:	0f 1f 44 00 00       	nopl   0x0(%rax,%rax,1)

0000000000008c70 <I32_Serialise>:
    8c70:	48 b8 99 38 b7 a8 03 	movabs $0x7512ee03a8b73899,%rax
    8c77:	ee 12 75 
    8c7a:	48 89 04 0a          	mov    %rax,(%rdx,%rcx,1)
    8c7e:	8b 46 08             	mov    0x8(%rsi),%eax
    8c81:	89 44 0a 08          	mov    %eax,0x8(%rdx,%rcx,1)
    8c85:	c3                   	ret
    8c86:	66 2e 0f 1f 84 00 00 	cs nopw 0x0(%rax,%rax,1)
    8c8d:	00 00 00 

0000000000008c90 <I32_Deserialise>:
    8c90:	48 8d 05 49 be 01 00 	lea    0x1be49(%rip),%rax        # 24ae0 <cycle_type+0xd80>
    8c97:	48 89 06             	mov    %rax,(%rsi)
    8c9a:	c3                   	ret
    8c9b:	0f 1f 44 00 00       	nopl   0x0(%rax,%rax,1)

0000000000008ca0 <t2_I64_val_I64_val_Serialise>:
    8ca0:	48 b8 76 05 84 7f 01 	movabs $0x9100f017f840576,%rax
    8ca7:	0f 10 09 
    8caa:	48 89 04 0a          	mov    %rax,(%rdx,%rcx,1)
    8cae:	48 8b 46 08          	mov    0x8(%rsi),%rax
    8cb2:	48 89 44 0a 08       	mov    %rax,0x8(%rdx,%rcx,1)
    8cb7:	48 8b 46 10          	mov    0x10(%rsi),%rax
    8cbb:	48 89 44 0a 10       	mov    %rax,0x10(%rdx,%rcx,1)
    8cc0:	c3                   	ret
    8cc1:	66 66 66 66 66 66 2e 	data16 data16 data16 data16 data16 cs nopw 0x0(%rax,%rax,1)
    8cc8:	0f 1f 84 00 00 00 00 
    8ccf:	00 

0000000000008cd0 <t2_I64_val_I64_val_Deserialise>:
    8cd0:	48 8d 05 99 bf 01 00 	lea    0x1bf99(%rip),%rax        # 24c70 <cycle_type+0xf10>
    8cd7:	48 89 06             	mov    %rax,(%rsi)
    8cda:	c3                   	ret
    8cdb:	0f 1f 44 00 00       	nopl   0x0(%rax,%rax,1)

0000000000008ce0 <U64_Serialise>:
    8ce0:	48 b8 3d 16 ad b6 32 	movabs $0x615a5f32b6ad163d,%rax
    8ce7:	5f 5a 61 
    8cea:	48 89 04 0a          	mov    %rax,(%rdx,%rcx,1)
    8cee:	48 8b 46 08          	mov    0x8(%rsi),%rax
    8cf2:	48 89 44 0a 08       	mov    %rax,0x8(%rdx,%rcx,1)
    8cf7:	c3                   	ret
    8cf8:	0f 1f 84 00 00 00 00 	nopl   0x0(%rax,%rax,1)
    8cff:	00 

0000000000008d00 <U64_Deserialise>:
    8d00:	48 8d 05 f9 c0 01 00 	lea    0x1c0f9(%rip),%rax        # 24e00 <cycle_type+0x10a0>
    8d07:	48 89 06             	mov    %rax,(%rsi)
    8d0a:	c3                   	ret
    8d0b:	0f 1f 44 00 00       	nopl   0x0(%rax,%rax,1)
    8d10:	48 8b 47 08          	mov    0x8(%rdi),%rax
    8d14:	c3                   	ret
    8d15:	66 66 2e 0f 1f 84 00 	data16 cs nopw 0x0(%rax,%rax,1)
    8d1c:	00 00 00 00 
    8d20:	48 8b 47 08          	mov    0x8(%rdi),%rax
    8d24:	c3                   	ret
    8d25:	66 66 2e 0f 1f 84 00 	data16 cs nopw 0x0(%rax,%rax,1)
    8d2c:	00 00 00 00 
    8d30:	48 8b 47 08          	mov    0x8(%rdi),%rax
    8d34:	48 29 f0             	sub    %rsi,%rax
    8d37:	c3                   	ret
    8d38:	0f 1f 84 00 00 00 00 	nopl   0x0(%rax,%rax,1)
    8d3f:	00 
    8d40:	48 8b 47 08          	mov    0x8(%rdi),%rax
    8d44:	48 29 f0             	sub    %rsi,%rax
    8d47:	c3                   	ret
    8d48:	0f 1f 84 00 00 00 00 	nopl   0x0(%rax,%rax,1)
    8d4f:	00 
    8d50:	48 8b 47 08          	mov    0x8(%rdi),%rax
    8d54:	c3                   	ret
    8d55:	66 66 2e 0f 1f 84 00 	data16 cs nopw 0x0(%rax,%rax,1)
    8d5c:	00 00 00 00 
    8d60:	48 8b 47 08          	mov    0x8(%rdi),%rax
    8d64:	c3                   	ret
    8d65:	66 66 2e 0f 1f 84 00 	data16 cs nopw 0x0(%rax,%rax,1)
    8d6c:	00 00 00 00 
    8d70:	48 39 77 08          	cmp    %rsi,0x8(%rdi)
    8d74:	0f 95 c0             	setne  %al
    8d77:	c3                   	ret
    8d78:	0f 1f 84 00 00 00 00 	nopl   0x0(%rax,%rax,1)
    8d7f:	00 
    8d80:	48 39 77 08          	cmp    %rsi,0x8(%rdi)
    8d84:	0f 95 c0             	setne  %al
    8d87:	c3                   	ret
    8d88:	0f 1f 84 00 00 00 00 	nopl   0x0(%rax,%rax,1)
    8d8f:	00 
    8d90:	48 8b 77 08          	mov    0x8(%rdi),%rsi
    8d94:	31 d2                	xor    %edx,%edx
    8d96:	e9 e5 d6 ff ff       	jmp    6480 <__DescOffsetLookupFn+0x620>
    8d9b:	0f 1f 44 00 00       	nopl   0x0(%rax,%rax,1)
    8da0:	48 8b 77 08          	mov    0x8(%rdi),%rsi
    8da4:	31 d2                	xor    %edx,%edx
    8da6:	e9 d5 d6 ff ff       	jmp    6480 <__DescOffsetLookupFn+0x620>
    8dab:	0f 1f 44 00 00       	nopl   0x0(%rax,%rax,1)
    8db0:	48 89 f0             	mov    %rsi,%rax
    8db3:	48 0f af 47 08       	imul   0x8(%rdi),%rax
    8db8:	c3                   	ret
    8db9:	0f 1f 80 00 00 00 00 	nopl   0x0(%rax)
    8dc0:	48 89 f0             	mov    %rsi,%rax
    8dc3:	48 0f af 47 08       	imul   0x8(%rdi),%rax
    8dc8:	c3                   	ret
    8dc9:	0f 1f 80 00 00 00 00 	nopl   0x0(%rax)
    8dd0:	48 39 77 08          	cmp    %rsi,0x8(%rdi)
    8dd4:	0f 94 c0             	sete   %al
    8dd7:	c3                   	ret
    8dd8:	0f 1f 84 00 00 00 00 	nopl   0x0(%rax,%rax,1)
    8ddf:	00 
    8de0:	48 39 77 08          	cmp    %rsi,0x8(%rdi)
    8de4:	0f 94 c0             	sete   %al
    8de7:	c3                   	ret
    8de8:	0f 1f 84 00 00 00 00 	nopl   0x0(%rax,%rax,1)
    8def:	00 
    8df0:	48 85 f6             	test   %rsi,%rsi
    8df3:	74 0a                	je     8dff <U64_Deserialise+0xff>
    8df5:	48 8b 47 08          	mov    0x8(%rdi),%rax
    8df9:	31 d2                	xor    %edx,%edx
    8dfb:	48 f7 f6             	div    %rsi
    8dfe:	c3                   	ret
    8dff:	31 c0                	xor    %eax,%eax
    8e01:	c3                   	ret
    8e02:	66 66 66 66 66 2e 0f 	data16 data16 data16 data16 cs nopw 0x0(%rax,%rax,1)
    8e09:	1f 84 00 00 00 00 00 
    8e10:	48 85 f6             	test   %rsi,%rsi
    8e13:	74 0a                	je     8e1f <U64_Deserialise+0x11f>
    8e15:	48 8b 47 08          	mov    0x8(%rdi),%rax
    8e19:	31 d2                	xor    %edx,%edx
    8e1b:	48 f7 f6             	div    %rsi
    8e1e:	c3                   	ret
    8e1f:	31 c0                	xor    %eax,%eax
    8e21:	c3                   	ret
    8e22:	66 66 66 66 66 2e 0f 	data16 data16 data16 data16 cs nopw 0x0(%rax,%rax,1)
    8e29:	1f 84 00 00 00 00 00 
    8e30:	48 89 d0             	mov    %rdx,%rax
    8e33:	c3                   	ret
    8e34:	66 66 66 2e 0f 1f 84 	data16 data16 cs nopw 0x0(%rax,%rax,1)
    8e3b:	00 00 00 00 00 

0000000000008e40 <USize_Serialise>:
    8e40:	48 b8 0f 6a ca 35 a5 	movabs $0x480d2fa535ca6a0f,%rax
    8e47:	2f 0d 48 
    8e4a:	48 89 04 0a          	mov    %rax,(%rdx,%rcx,1)
    8e4e:	48 8b 46 08          	mov    0x8(%rsi),%rax
    8e52:	48 89 44 0a 08       	mov    %rax,0x8(%rdx,%rcx,1)
    8e57:	c3                   	ret
    8e58:	0f 1f 84 00 00 00 00 	nopl   0x0(%rax,%rax,1)
    8e5f:	00 

0000000000008e60 <USize_Deserialise>:
    8e60:	48 8d 05 29 c1 01 00 	lea    0x1c129(%rip),%rax        # 24f90 <cycle_type+0x1230>
    8e67:	48 89 06             	mov    %rax,(%rsi)
    8e6a:	c3                   	ret
    8e6b:	0f 1f 44 00 00       	nopl   0x0(%rax,%rax,1)
    8e70:	48 39 77 08          	cmp    %rsi,0x8(%rdi)
    8e74:	0f 96 c0             	setbe  %al
    8e77:	c3                   	ret
    8e78:	0f 1f 84 00 00 00 00 	nopl   0x0(%rax,%rax,1)
    8e7f:	00 
    8e80:	48 39 77 08          	cmp    %rsi,0x8(%rdi)
    8e84:	0f 96 c0             	setbe  %al
    8e87:	c3                   	ret
    8e88:	0f 1f 84 00 00 00 00 	nopl   0x0(%rax,%rax,1)
    8e8f:	00 
    8e90:	48 8b 47 08          	mov    0x8(%rdi),%rax
    8e94:	c3                   	ret
    8e95:	66 66 2e 0f 1f 84 00 	data16 cs nopw 0x0(%rax,%rax,1)
    8e9c:	00 00 00 00 
    8ea0:	48 8b 47 08          	mov    0x8(%rdi),%rax
    8ea4:	c3                   	ret
    8ea5:	66 66 2e 0f 1f 84 00 	data16 cs nopw 0x0(%rax,%rax,1)
    8eac:	00 00 00 00 
    8eb0:	b8 40 00 00 00       	mov    $0x40,%eax
    8eb5:	c3                   	ret
    8eb6:	66 2e 0f 1f 84 00 00 	cs nopw 0x0(%rax,%rax,1)
    8ebd:	00 00 00 
    8ec0:	b8 40 00 00 00       	mov    $0x40,%eax
    8ec5:	c3                   	ret
    8ec6:	66 2e 0f 1f 84 00 00 	cs nopw 0x0(%rax,%rax,1)
    8ecd:	00 00 00 
    8ed0:	48 8b 47 08          	mov    0x8(%rdi),%rax
    8ed4:	48 29 f0             	sub    %rsi,%rax
    8ed7:	c3                   	ret
    8ed8:	0f 1f 84 00 00 00 00 	nopl   0x0(%rax,%rax,1)
    8edf:	00 
    8ee0:	48 8b 47 08          	mov    0x8(%rdi),%rax
    8ee4:	48 29 f0             	sub    %rsi,%rax
    8ee7:	c3                   	ret
    8ee8:	0f 1f 84 00 00 00 00 	nopl   0x0(%rax,%rax,1)
    8eef:	00 
    8ef0:	48 83 fe 3f          	cmp    $0x3f,%rsi
    8ef4:	b8 3f 00 00 00       	mov    $0x3f,%eax
    8ef9:	48 0f 42 c6          	cmovb  %rsi,%rax
    8efd:	c4 e2 f9 f7 47 08    	shlx   %rax,0x8(%rdi),%rax
    8f03:	c3                   	ret
    8f04:	66 66 66 2e 0f 1f 84 	data16 data16 cs nopw 0x0(%rax,%rax,1)
    8f0b:	00 00 00 00 00 
    8f10:	48 83 fe 3f          	cmp    $0x3f,%rsi
    8f14:	b8 3f 00 00 00       	mov    $0x3f,%eax
    8f19:	48 0f 42 c6          	cmovb  %rsi,%rax
    8f1d:	c4 e2 f9 f7 47 08    	shlx   %rax,0x8(%rdi),%rax
    8f23:	c3                   	ret
    8f24:	66 66 66 2e 0f 1f 84 	data16 data16 cs nopw 0x0(%rax,%rax,1)
    8f2b:	00 00 00 00 00 
    8f30:	48 39 77 08          	cmp    %rsi,0x8(%rdi)
    8f34:	0f 95 c0             	setne  %al
    8f37:	c3                   	ret
    8f38:	0f 1f 84 00 00 00 00 	nopl   0x0(%rax,%rax,1)
    8f3f:	00 
    8f40:	48 39 77 08          	cmp    %rsi,0x8(%rdi)
    8f44:	0f 95 c0             	setne  %al
    8f47:	c3                   	ret
    8f48:	0f 1f 84 00 00 00 00 	nopl   0x0(%rax,%rax,1)
    8f4f:	00 
    8f50:	48 c7 c0 ff ff ff ff 	mov    $0xffffffffffffffff,%rax
    8f57:	c3                   	ret
    8f58:	0f 1f 84 00 00 00 00 	nopl   0x0(%rax,%rax,1)
    8f5f:	00 
    8f60:	48 89 f0             	mov    %rsi,%rax
    8f63:	48 03 47 08          	add    0x8(%rdi),%rax
    8f67:	c3                   	ret
    8f68:	0f 1f 84 00 00 00 00 	nopl   0x0(%rax,%rax,1)
    8f6f:	00 
    8f70:	48 89 f0             	mov    %rsi,%rax
    8f73:	48 03 47 08          	add    0x8(%rdi),%rax
    8f77:	c3                   	ret
    8f78:	0f 1f 84 00 00 00 00 	nopl   0x0(%rax,%rax,1)
    8f7f:	00 
    8f80:	48 89 f0             	mov    %rsi,%rax
    8f83:	48 0f af 47 08       	imul   0x8(%rdi),%rax
    8f88:	c3                   	ret
    8f89:	0f 1f 80 00 00 00 00 	nopl   0x0(%rax)
    8f90:	48 89 f0             	mov    %rsi,%rax
    8f93:	48 0f af 47 08       	imul   0x8(%rdi),%rax
    8f98:	c3                   	ret
    8f99:	0f 1f 80 00 00 00 00 	nopl   0x0(%rax)
    8fa0:	48 8b 47 08          	mov    0x8(%rdi),%rax
    8fa4:	ba 01 00 00 00       	mov    $0x1,%edx
    8fa9:	48 ff c8             	dec    %rax
    8fac:	f3 48 0f bd c0       	lzcnt  %rax,%rax
    8fb1:	89 c1                	mov    %eax,%ecx
    8fb3:	f6 d9                	neg    %cl
    8fb5:	48 85 c0             	test   %rax,%rax
    8fb8:	c4 e2 f1 f7 c2       	shlx   %rcx,%rdx,%rax
    8fbd:	48 0f 44 c2          	cmove  %rdx,%rax
    8fc1:	c3                   	ret
    8fc2:	66 66 66 66 66 2e 0f 	data16 data16 data16 data16 cs nopw 0x0(%rax,%rax,1)
    8fc9:	1f 84 00 00 00 00 00 
    8fd0:	48 8b 47 08          	mov    0x8(%rdi),%rax
    8fd4:	ba 01 00 00 00       	mov    $0x1,%edx
    8fd9:	48 ff c8             	dec    %rax
    8fdc:	f3 48 0f bd c0       	lzcnt  %rax,%rax
    8fe1:	89 c1                	mov    %eax,%ecx
    8fe3:	f6 d9                	neg    %cl
    8fe5:	48 85 c0             	test   %rax,%rax
    8fe8:	c4 e2 f1 f7 c2       	shlx   %rcx,%rdx,%rax
    8fed:	48 0f 44 c2          	cmove  %rdx,%rax
    8ff1:	c3                   	ret
    8ff2:	66 66 66 66 66 2e 0f 	data16 data16 data16 data16 cs nopw 0x0(%rax,%rax,1)
    8ff9:	1f 84 00 00 00 00 00 
    9000:	48 8b 47 08          	mov    0x8(%rdi),%rax
    9004:	c3                   	ret
    9005:	66 66 2e 0f 1f 84 00 	data16 cs nopw 0x0(%rax,%rax,1)
    900c:	00 00 00 00 
    9010:	48 8b 47 08          	mov    0x8(%rdi),%rax
    9014:	c3                   	ret
    9015:	66 66 2e 0f 1f 84 00 	data16 cs nopw 0x0(%rax,%rax,1)
    901c:	00 00 00 00 
    9020:	48 39 77 08          	cmp    %rsi,0x8(%rdi)
    9024:	0f 94 c0             	sete   %al
    9027:	c3                   	ret
    9028:	0f 1f 84 00 00 00 00 	nopl   0x0(%rax,%rax,1)
    902f:	00 
    9030:	48 39 77 08          	cmp    %rsi,0x8(%rdi)
    9034:	0f 94 c0             	sete   %al
    9037:	c3                   	ret
    9038:	0f 1f 84 00 00 00 00 	nopl   0x0(%rax,%rax,1)
    903f:	00 
    9040:	48 85 f6             	test   %rsi,%rsi
    9043:	74 0a                	je     904f <USize_Deserialise+0x1ef>
    9045:	48 8b 47 08          	mov    0x8(%rdi),%rax
    9049:	31 d2                	xor    %edx,%edx
    904b:	48 f7 f6             	div    %rsi
    904e:	c3                   	ret
    904f:	31 c0                	xor    %eax,%eax
    9051:	c3                   	ret
    9052:	66 66 66 66 66 2e 0f 	data16 data16 data16 data16 cs nopw 0x0(%rax,%rax,1)
    9059:	1f 84 00 00 00 00 00 
    9060:	48 85 f6             	test   %rsi,%rsi
    9063:	74 0a                	je     906f <USize_Deserialise+0x20f>
    9065:	48 8b 47 08          	mov    0x8(%rdi),%rax
    9069:	31 d2                	xor    %edx,%edx
    906b:	48 f7 f6             	div    %rsi
    906e:	c3                   	ret
    906f:	31 c0                	xor    %eax,%eax
    9071:	c3                   	ret
    9072:	66 66 66 66 66 2e 0f 	data16 data16 data16 data16 cs nopw 0x0(%rax,%rax,1)
    9079:	1f 84 00 00 00 00 00 
    9080:	f3 48 0f bd 47 08    	lzcnt  0x8(%rdi),%rax
    9086:	c3                   	ret
    9087:	66 0f 1f 84 00 00 00 	nopw   0x0(%rax,%rax,1)
    908e:	00 00 
    9090:	f3 48 0f bd 47 08    	lzcnt  0x8(%rdi),%rax
    9096:	c3                   	ret
    9097:	66 0f 1f 84 00 00 00 	nopw   0x0(%rax,%rax,1)
    909e:	00 00 
    90a0:	48 8b 47 08          	mov    0x8(%rdi),%rax
    90a4:	48 39 f0             	cmp    %rsi,%rax
    90a7:	48 0f 46 c6          	cmovbe %rsi,%rax
    90ab:	c3                   	ret
    90ac:	0f 1f 40 00          	nopl   0x0(%rax)
    90b0:	48 8b 47 08          	mov    0x8(%rdi),%rax
    90b4:	48 39 f0             	cmp    %rsi,%rax
    90b7:	48 0f 46 c6          	cmovbe %rsi,%rax
    90bb:	c3                   	ret
    90bc:	0f 1f 40 00          	nopl   0x0(%rax)
    90c0:	31 c0                	xor    %eax,%eax
    90c2:	48 2b 47 08          	sub    0x8(%rdi),%rax
    90c6:	c3                   	ret
    90c7:	66 0f 1f 84 00 00 00 	nopw   0x0(%rax,%rax,1)
    90ce:	00 00 
    90d0:	31 c0                	xor    %eax,%eax
    90d2:	48 2b 47 08          	sub    0x8(%rdi),%rax
    90d6:	c3                   	ret
    90d7:	66 0f 1f 84 00 00 00 	nopw   0x0(%rax,%rax,1)
    90de:	00 00 
    90e0:	48 8b 47 08          	mov    0x8(%rdi),%rax
    90e4:	48 39 f0             	cmp    %rsi,%rax
    90e7:	48 0f 43 c6          	cmovae %rsi,%rax
    90eb:	c3                   	ret
    90ec:	0f 1f 40 00          	nopl   0x0(%rax)
    90f0:	48 8b 47 08          	mov    0x8(%rdi),%rax
    90f4:	48 39 f0             	cmp    %rsi,%rax
    90f7:	48 0f 43 c6          	cmovae %rsi,%rax
    90fb:	c3                   	ret
    90fc:	0f 1f 40 00          	nopl   0x0(%rax)
    9100:	48 89 d0             	mov    %rdx,%rax
    9103:	c3                   	ret
    9104:	66 66 66 2e 0f 1f 84 	data16 data16 cs nopw 0x0(%rax,%rax,1)
    910b:	00 00 00 00 00 
    9110:	48 39 77 08          	cmp    %rsi,0x8(%rdi)
    9114:	0f 92 c0             	setb   %al
    9117:	c3                   	ret
    9118:	0f 1f 84 00 00 00 00 	nopl   0x0(%rax,%rax,1)
    911f:	00 
    9120:	48 39 77 08          	cmp    %rsi,0x8(%rdi)
    9124:	0f 92 c0             	setb   %al
    9127:	c3                   	ret
    9128:	0f 1f 84 00 00 00 00 	nopl   0x0(%rax,%rax,1)
    912f:	00 
    9130:	48 39 77 08          	cmp    %rsi,0x8(%rdi)
    9134:	0f 97 c0             	seta   %al
    9137:	c3                   	ret
    9138:	0f 1f 84 00 00 00 00 	nopl   0x0(%rax,%rax,1)
    913f:	00 
    9140:	48 39 77 08          	cmp    %rsi,0x8(%rdi)
    9144:	0f 97 c0             	seta   %al
    9147:	c3                   	ret
    9148:	0f 1f 84 00 00 00 00 	nopl   0x0(%rax,%rax,1)
    914f:	00 

0000000000009150 <RuntimeOptions_Serialise>:
    9150:	8b 06                	mov    (%rsi),%eax
    9152:	89 04 0a             	mov    %eax,(%rdx,%rcx,1)
    9155:	8b 46 04             	mov    0x4(%rsi),%eax
    9158:	89 44 0a 04          	mov    %eax,0x4(%rdx,%rcx,1)
    915c:	0f b6 46 08          	movzbl 0x8(%rsi),%eax
    9160:	88 44 0a 08          	mov    %al,0x8(%rdx,%rcx,1)
    9164:	8b 46 0c             	mov    0xc(%rsi),%eax
    9167:	89 44 0a 0c          	mov    %eax,0xc(%rdx,%rcx,1)
    916b:	8b 46 10             	mov    0x10(%rsi),%eax
    916e:	89 44 0a 10          	mov    %eax,0x10(%rdx,%rcx,1)
    9172:	48 8b 46 18          	mov    0x18(%rsi),%rax
    9176:	48 89 44 0a 18       	mov    %rax,0x18(%rdx,%rcx,1)
    917b:	c5 fb 10 46 20       	vmovsd 0x20(%rsi),%xmm0
    9180:	c5 fb 11 44 0a 20    	vmovsd %xmm0,0x20(%rdx,%rcx,1)
    9186:	0f b6 46 28          	movzbl 0x28(%rsi),%eax
    918a:	88 44 0a 28          	mov    %al,0x28(%rdx,%rcx,1)
    918e:	0f b6 46 29          	movzbl 0x29(%rsi),%eax
    9192:	88 44 0a 29          	mov    %al,0x29(%rdx,%rcx,1)
    9196:	0f b6 46 2a          	movzbl 0x2a(%rsi),%eax
    919a:	88 44 0a 2a          	mov    %al,0x2a(%rdx,%rcx,1)
    919e:	0f b6 46 2b          	movzbl 0x2b(%rsi),%eax
    91a2:	88 44 0a 2b          	mov    %al,0x2b(%rdx,%rcx,1)
    91a6:	0f b6 46 2c          	movzbl 0x2c(%rsi),%eax
    91aa:	88 44 0a 2c          	mov    %al,0x2c(%rdx,%rcx,1)
    91ae:	8b 46 30             	mov    0x30(%rsi),%eax
    91b1:	89 44 0a 30          	mov    %eax,0x30(%rdx,%rcx,1)
    91b5:	0f b6 46 34          	movzbl 0x34(%rsi),%eax
    91b9:	88 44 0a 34          	mov    %al,0x34(%rdx,%rcx,1)
    91bd:	0f b6 46 35          	movzbl 0x35(%rsi),%eax
    91c1:	88 44 0a 35          	mov    %al,0x35(%rdx,%rcx,1)
    91c5:	c3                   	ret
    91c6:	66 2e 0f 1f 84 00 00 	cs nopw 0x0(%rax,%rax,1)
    91cd:	00 00 00 

00000000000091d0 <RuntimeOptions_Deserialise>:
    91d0:	c3                   	ret
    91d1:	66 66 66 66 66 66 2e 	data16 data16 data16 data16 data16 cs nopw 0x0(%rax,%rax,1)
    91d8:	0f 1f 84 00 00 00 00 
    91df:	00 

00000000000091e0 <Array_U8_val_SerialiseTrace>:
    91e0:	48 8b 56 08          	mov    0x8(%rsi),%rdx
    91e4:	48 85 d2             	test   %rdx,%rdx
    91e7:	74 09                	je     91f2 <Array_U8_val_SerialiseTrace+0x12>
    91e9:	48 8b 76 18          	mov    0x18(%rsi),%rsi
    91ed:	e9 7e 59 00 00       	jmp    eb70 <pony_serialise_reserve>
    91f2:	c3                   	ret
    91f3:	66 66 66 66 2e 0f 1f 	data16 data16 data16 cs nopw 0x0(%rax,%rax,1)
    91fa:	84 00 00 00 00 00 

0000000000009200 <Array_U8_val_Serialise>:
    9200:	48 b8 53 1b 06 0b 1f 	movabs $0x757f7d1f0b061b53,%rax
    9207:	7d 7f 75 
    920a:	48 89 04 0a          	mov    %rax,(%rdx,%rcx,1)
    920e:	41 83 f8 02          	cmp    $0x2,%r8d
    9212:	75 01                	jne    9215 <Array_U8_val_Serialise+0x15>
    9214:	c3                   	ret
    9215:	41 57                	push   %r15
    9217:	41 56                	push   %r14
    9219:	41 54                	push   %r12
    921b:	53                   	push   %rbx
    921c:	50                   	push   %rax
    921d:	48 8b 5e 08          	mov    0x8(%rsi),%rbx
    9221:	49 89 d7             	mov    %rdx,%r15
    9224:	49 89 cc             	mov    %rcx,%r12
    9227:	48 89 5c 0a 08       	mov    %rbx,0x8(%rdx,%rcx,1)
    922c:	48 89 5c 0a 10       	mov    %rbx,0x10(%rdx,%rcx,1)
    9231:	4c 8b 76 18          	mov    0x18(%rsi),%r14
    9235:	4c 89 f6             	mov    %r14,%rsi
    9238:	e8 e3 59 00 00       	call   ec20 <pony_serialise_offset>
    923d:	4b 89 44 27 18       	mov    %rax,0x18(%r15,%r12,1)
    9242:	49 01 c7             	add    %rax,%r15
    9245:	4c 89 f6             	mov    %r14,%rsi
    9248:	48 89 da             	mov    %rbx,%rdx
    924b:	4c 89 ff             	mov    %r15,%rdi
    924e:	48 83 c4 08          	add    $0x8,%rsp
    9252:	5b                   	pop    %rbx
    9253:	41 5c                	pop    %r12
    9255:	41 5e                	pop    %r14
    9257:	41 5f                	pop    %r15
    9259:	e9 72 c3 ff ff       	jmp    55d0 <memcpy@plt>
    925e:	66 90                	xchg   %ax,%ax

0000000000009260 <Array_U8_val_Deserialise>:
    9260:	53                   	push   %rbx
    9261:	48 8d 05 d8 be 01 00 	lea    0x1bed8(%rip),%rax        # 25140 <cycle_type+0x13e0>
    9268:	48 89 f3             	mov    %rsi,%rbx
    926b:	48 89 06             	mov    %rax,(%rsi)
    926e:	48 8b 56 10          	mov    0x10(%rsi),%rdx
    9272:	48 8b 76 18          	mov    0x18(%rsi),%rsi
    9276:	e8 e5 5d 00 00       	call   f060 <pony_deserialise_block>
    927b:	48 89 43 18          	mov    %rax,0x18(%rbx)
    927f:	5b                   	pop    %rbx
    9280:	c3                   	ret
    9281:	66 66 66 66 66 66 2e 	data16 data16 data16 data16 data16 cs nopw 0x0(%rax,%rax,1)
    9288:	0f 1f 84 00 00 00 00 
    928f:	00 

0000000000009290 <time_Time_Serialise>:
    9290:	48 b8 a2 20 b8 d7 90 	movabs $0x67a74290d7b820a2,%rax
    9297:	42 a7 67 
    929a:	48 89 04 0a          	mov    %rax,(%rdx,%rcx,1)
    929e:	c3                   	ret
    929f:	90                   	nop

00000000000092a0 <Env_Serialise>:
    92a0:	41 57                	push   %r15
    92a2:	41 56                	push   %r14
    92a4:	41 54                	push   %r12
    92a6:	53                   	push   %rbx
    92a7:	50                   	push   %rax
    92a8:	48 b8 6e 21 fb d6 40 	movabs $0x58d1bd40d6fb216e,%rax
    92af:	bd d1 58 
    92b2:	49 89 f4             	mov    %rsi,%r12
    92b5:	48 89 cb             	mov    %rcx,%rbx
    92b8:	49 89 d6             	mov    %rdx,%r14
    92bb:	49 89 ff             	mov    %rdi,%r15
    92be:	48 89 04 0a          	mov    %rax,(%rdx,%rcx,1)
    92c2:	48 8b 76 08          	mov    0x8(%rsi),%rsi
    92c6:	e8 55 59 00 00       	call   ec20 <pony_serialise_offset>
    92cb:	49 89 44 1e 08       	mov    %rax,0x8(%r14,%rbx,1)
    92d0:	4c 89 ff             	mov    %r15,%rdi
    92d3:	49 8b 74 24 10       	mov    0x10(%r12),%rsi
    92d8:	e8 43 59 00 00       	call   ec20 <pony_serialise_offset>
    92dd:	49 89 44 1e 10       	mov    %rax,0x10(%r14,%rbx,1)
    92e2:	4c 89 ff             	mov    %r15,%rdi
    92e5:	49 8b 74 24 18       	mov    0x18(%r12),%rsi
    92ea:	e8 31 59 00 00       	call   ec20 <pony_serialise_offset>
    92ef:	49 89 44 1e 18       	mov    %rax,0x18(%r14,%rbx,1)
    92f4:	4c 89 ff             	mov    %r15,%rdi
    92f7:	49 8b 74 24 20       	mov    0x20(%r12),%rsi
    92fc:	e8 1f 59 00 00       	call   ec20 <pony_serialise_offset>
    9301:	49 89 44 1e 20       	mov    %rax,0x20(%r14,%rbx,1)
    9306:	4c 89 ff             	mov    %r15,%rdi
    9309:	49 8b 74 24 28       	mov    0x28(%r12),%rsi
    930e:	e8 0d 59 00 00       	call   ec20 <pony_serialise_offset>
    9313:	49 89 44 1e 28       	mov    %rax,0x28(%r14,%rbx,1)
    9318:	4c 89 ff             	mov    %r15,%rdi
    931b:	49 8b 74 24 30       	mov    0x30(%r12),%rsi
    9320:	e8 fb 58 00 00       	call   ec20 <pony_serialise_offset>
    9325:	49 89 44 1e 30       	mov    %rax,0x30(%r14,%rbx,1)
    932a:	4c 89 ff             	mov    %r15,%rdi
    932d:	49 8b 74 24 38       	mov    0x38(%r12),%rsi
    9332:	e8 e9 58 00 00       	call   ec20 <pony_serialise_offset>
    9337:	49 89 44 1e 38       	mov    %rax,0x38(%r14,%rbx,1)
    933c:	48 83 c4 08          	add    $0x8,%rsp
    9340:	5b                   	pop    %rbx
    9341:	41 5c                	pop    %r12
    9343:	41 5e                	pop    %r14
    9345:	41 5f                	pop    %r15
    9347:	c3                   	ret
    9348:	0f 1f 84 00 00 00 00 	nopl   0x0(%rax,%rax,1)
    934f:	00 

0000000000009350 <Env_Deserialise>:
    9350:	41 57                	push   %r15
    9352:	41 56                	push   %r14
    9354:	53                   	push   %rbx
    9355:	48 8d 05 a4 bf 01 00 	lea    0x1bfa4(%rip),%rax        # 25300 <cycle_type+0x15a0>
    935c:	48 89 f3             	mov    %rsi,%rbx
    935f:	49 89 fe             	mov    %rdi,%r14
    9362:	48 89 06             	mov    %rax,(%rsi)
    9365:	48 8b 56 08          	mov    0x8(%rsi),%rdx
    9369:	48 8d 35 d0 af 01 00 	lea    0x1afd0(%rip),%rsi        # 24340 <cycle_type+0x5e0>
    9370:	e8 8b 5a 00 00       	call   ee00 <pony_deserialise_offset>
    9375:	48 89 43 08          	mov    %rax,0x8(%rbx)
    9379:	4c 89 f7             	mov    %r14,%rdi
    937c:	31 f6                	xor    %esi,%esi
    937e:	48 8b 53 10          	mov    0x10(%rbx),%rdx
    9382:	e8 79 5a 00 00       	call   ee00 <pony_deserialise_offset>
    9387:	48 89 43 10          	mov    %rax,0x10(%rbx)
    938b:	4c 89 f7             	mov    %r14,%rdi
    938e:	31 f6                	xor    %esi,%esi
    9390:	48 8b 53 18          	mov    0x18(%rbx),%rdx
    9394:	e8 67 5a 00 00       	call   ee00 <pony_deserialise_offset>
    9399:	48 89 43 18          	mov    %rax,0x18(%rbx)
    939d:	4c 89 f7             	mov    %r14,%rdi
    93a0:	31 f6                	xor    %esi,%esi
